Microsoft (R) Macro Assembler Version 14.16.27031.1	    12/27/19 11:54:48
RestaurantsBillingSystem.asm				     Page 1 - 1


				Include Irvine32.inc
			      C ; Include file for Irvine32.lib             (Irvine32.inc)
			      C 
			      C ;OPTION CASEMAP:NONE		; optional: make identifiers case-sensitive
			      C 
			      C INCLUDE SmallWin.inc		; MS-Windows prototypes, structures, and constants
			      C .NOLIST
			      C .LIST
			      C 
			      C INCLUDE VirtualKeys.inc
			      C ; VirtualKeys.inc
			      C .NOLIST
			      C .LIST
			      C 
			      C 
			      C .NOLIST
			      C .LIST
			      C 
				IncludeLib Irvine32.lib
				IncludeLib Kernel32.lib
				IncludeLib User32.lib

 00000000			.DATA

 = 00001388			BUFFER_SIZE   = 5000
 = 0000000F			PASSWORD_SIZE = 15                                                ; Max Pass User can Set....
 = 00000011			INPUT_SIZE    = 17                                                ; Max User can give as Input...
 = 00000014			SALE_SIZE     = 20                                                ; Max Sale Digits to be written to file...
 00000000 000000A9		oPrice   DWORD 169, 149, 99, 89, 69, 69, 10, 5                    ; To store the prices of Oriental...
	   00000095
	   00000063
	   00000059
	   00000045
	   00000045
	   0000000A
	   00000005
 00000020 000000A9		cPrice   DWORD 169, 149, 99, 79                                   ; To store the prices of Chinese...
	   00000095
	   00000063
	   0000004F
 00000030 00000095		fPrice   DWORD 149, 99, 79, 49                                    ; To store the prices of Fast Food...
	   00000063
	   0000004F
	   00000031
 00000040 0000031F		dePrice  DWORD 799, 699, 99, 69                                   ; To store the prices of Dessert...
	   000002BB
	   00000063
	   00000045
 00000050 00000063		drPrice  DWORD 99, 99, 49 ,49, 69, 64, 89, 49                     ; To store the prices of Drinks...
	   00000063
	   00000031
	   00000031
	   00000045
	   00000040
	   00000059
	   00000031
 00000070 00000000		bill     DWORD ?                                                  ; To store the bill...
 00000074 00000000		bool     DWORD ?                                                  ; To store the result of Check... 
 00000078 00000000		byteRead DWORD ?                                                  ; To store read Bytes from File...
 0000007C 00000000		fHandle  DWORD ?                                                  ; To store File Handle...
 00000080 00000000		mockBill DWORD ?                                                  ; To store copy of Bill...
 00000084 00000000		dealRep  DWORD ?                                                  ; To store Deal Repetition...
 00000088 00000000		bytWrite DWORD ?
 0000008C  0000000F [		passFile BYTE  PASSWORD_SIZE DUP(?)                               ; To store the Password from File...
	    00
	   ]
 0000009B  00000011 [		userPass BYTE  INPUT_SIZE DUP(?)                                  ; To store the Input Password...
	    00
	   ]
 000000AC  00001388 [		saleFile BYTE  BUFFER_SIZE DUP(?)
	    00
	   ]
 00001434 00			mockSaleBill BYTE ?

 00001435 20 20 20 20 20	welcome  BYTE "                       "
	   20 20 20 20 20
	   20 20 20 20 20
	   20 20 20 20 20
	   20 20 20
 0000144C  20 2A 2A 2A 20	         BYTE " *** Welcome To Restaurant Transylvania *** ", 0ah, 0dh, 0 ; Welcome note...
	   57 65 6C 63 6F
	   6D 65 20 54 6F
	   20 52 65 73 74
	   61 75 72 61 6E
	   74 20 54 72 61
	   6E 73 79 6C 76
	   61 6E 69 61 20
	   2A 2A 2A 20 0A
	   0D 00

 0000147B 20 45 6E 74 65	id       BYTE " Enter 1 : For Admin ", 0ah, 0dh
	   72 20 31 20 3A
	   20 46 6F 72 20
	   41 64 6D 69 6E
	   20 0A 0D
 00001492  20 45 6E 74 65	         BYTE " Enter 2 : For Customers ", 0ah, 0dh
	   72 20 32 20 3A
	   20 46 6F 72 20
	   43 75 73 74 6F
	   6D 65 72 73 20
	   0A 0D
 000014AD  20 45 6E 74 65		     BYTE " Enter 3 : To Exit ", 0ah, 0dh, 0
	   72 20 33 20 3A
	   20 54 6F 20 45
	   78 69 74 20 0A
	   0D 00

 000014C3 20 20 20 20 20	choice   BYTE "                        ---------------------  ", 0ah, 0dh
	   20 20 20 20 20
	   20 20 20 20 20
	   20 20 20 20 20
	   20 20 20 20 2D
	   2D 2D 2D 2D 2D
	   2D 2D 2D 2D 2D
	   2D 2D 2D 2D 2D
	   2D 2D 2D 2D 2D
	   20 20 0A 0D
 000014F4  20 20 20 20 20	         BYTE "                        ------  ADMIN  ------ ", 0ah, 0dh
	   20 20 20 20 20
	   20 20 20 20 20
	   20 20 20 20 20
	   20 20 20 20 2D
	   2D 2D 2D 2D 2D
	   20 20 41 44 4D
	   49 4E 20 20 2D
	   2D 2D 2D 2D 2D
	   20 0A 0D
 00001524  20 20 20 20 20	         BYTE "                        ---------------------  ", 0ah, 0dh, 0ah, 0dh
	   20 20 20 20 20
	   20 20 20 20 20
	   20 20 20 20 20
	   20 20 20 20 2D
	   2D 2D 2D 2D 2D
	   2D 2D 2D 2D 2D
	   2D 2D 2D 2D 2D
	   2D 2D 2D 2D 2D
	   20 20 0A 0D 0A
	   0D
 00001557  20 45 6E 74 65	         BYTE " Enter 1 : To Print Sale ", 0ah, 0dh
	   72 20 31 20 3A
	   20 54 6F 20 50
	   72 69 6E 74 20
	   53 61 6C 65 20
	   0A 0D
 00001572  20 45 6E 74 65	         BYTE " Enter 2 : To Reset Password ", 0ah, 0dh
	   72 20 32 20 3A
	   20 54 6F 20 52
	   65 73 65 74 20
	   50 61 73 73 77
	   6F 72 64 20 0A
	   0D
 00001591  20 45 6E 74 65		     BYTE " Enter 3 : To Exit ", 0ah, 0dh, 0
	   72 20 33 20 3A
	   20 54 6F 20 45
	   78 69 74 20 0A
	   0D 00

 000015A7 20 20 20 20 20	options  BYTE "                        ----------------------  ", 0ah, 0dh
	   20 20 20 20 20
	   20 20 20 20 20
	   20 20 20 20 20
	   20 20 20 20 2D
	   2D 2D 2D 2D 2D
	   2D 2D 2D 2D 2D
	   2D 2D 2D 2D 2D
	   2D 2D 2D 2D 2D
	   2D 20 20 0A 0D
 000015D9  20 20 20 20 20	         BYTE "                        -----  Customer  ----- ", 0ah, 0dh
	   20 20 20 20 20
	   20 20 20 20 20
	   20 20 20 20 20
	   20 20 20 20 2D
	   2D 2D 2D 2D 20
	   20 43 75 73 74
	   6F 6D 65 72 20
	   20 2D 2D 2D 2D
	   2D 20 0A 0D
 0000160A  20 20 20 20 20	         BYTE "                        ---------------------- ", 0ah, 0dh, 0ah, 0dh
	   20 20 20 20 20
	   20 20 20 20 20
	   20 20 20 20 20
	   20 20 20 20 2D
	   2D 2D 2D 2D 2D
	   2D 2D 2D 2D 2D
	   2D 2D 2D 2D 2D
	   2D 2D 2D 2D 2D
	   2D 20 0A 0D 0A
	   0D
 0000163D  20 45 6E 74 65	         BYTE " Enter 1 : To see our Menu and Prices.", 0ah, 0dh
	   72 20 31 20 3A
	   20 54 6F 20 73
	   65 65 20 6F 75
	   72 20 4D 65 6E
	   75 20 61 6E 64
	   20 50 72 69 63
	   65 73 2E 0A 0D
 00001665  20 45 6E 74 65	         BYTE " Enter 2 : To see our Deals and Offers.", 0ah, 0dh
	   72 20 32 20 3A
	   20 54 6F 20 73
	   65 65 20 6F 75
	   72 20 44 65 61
	   6C 73 20 61 6E
	   64 20 4F 66 66
	   65 72 73 2E 0A
	   0D
 0000168E  20 45 6E 74 65			 BYTE " Enter 3 : To Place an Order.", 0ah, 0dh
	   72 20 33 20 3A
	   20 54 6F 20 50
	   6C 61 63 65 20
	   61 6E 20 4F 72
	   64 65 72 2E 0A
	   0D
 000016AD  20 45 6E 74 65			 BYTE " Enter 4 : To Reset the Bill [Cancel the order].", 0ah, 0dh
	   72 20 34 20 3A
	   20 54 6F 20 52
	   65 73 65 74 20
	   74 68 65 20 42
	   69 6C 6C 20 5B
	   43 61 6E 63 65
	   6C 20 74 68 65
	   20 6F 72 64 65
	   72 5D 2E 0A 0D
 000016DF  20 45 6E 74 65			 BYTE " Enter 5 : To Exit.", 0ah, 0dh , 0
	   72 20 35 20 3A
	   20 54 6F 20 45
	   78 69 74 2E 0A
	   0D 00

						                                                          ; Price Menu...
 000016F5 20 20 20 20 20	pMenu    BYTE "                     ------------------------- ", 0ah, 0dh
	   20 20 20 20 20
	   20 20 20 20 20
	   20 20 20 20 20
	   20 2D 2D 2D 2D
	   2D 2D 2D 2D 2D
	   2D 2D 2D 2D 2D
	   2D 2D 2D 2D 2D
	   2D 2D 2D 2D 2D
	   2D 20 0A 0D
 00001726  20 20 20 20 20	         BYTE "                     -- Presenting our Menu -- ", 0ah, 0dh
	   20 20 20 20 20
	   20 20 20 20 20
	   20 20 20 20 20
	   20 2D 2D 20 50
	   72 65 73 65 6E
	   74 69 6E 67 20
	   6F 75 72 20 4D
	   65 6E 75 20 2D
	   2D 20 0A 0D
 00001757  20 20 20 20 20	         BYTE "                     ------------------------- ", 0ah, 0dh, 0ah, 0dh
	   20 20 20 20 20
	   20 20 20 20 20
	   20 20 20 20 20
	   20 2D 2D 2D 2D
	   2D 2D 2D 2D 2D
	   2D 2D 2D 2D 2D
	   2D 2D 2D 2D 2D
	   2D 2D 2D 2D 2D
	   2D 20 0A 0D 0A
	   0D
 0000178A  20 20 20 2D 2D	         BYTE "   -------------- ", 0ah, 0dh
	   2D 2D 2D 2D 2D
	   2D 2D 2D 2D 2D
	   2D 2D 20 0A 0D
 0000179E  20 20 20 2D 2D	         BYTE "   -- Oriental -- ", 0ah, 0dh
	   20 4F 72 69 65
	   6E 74 61 6C 20
	   2D 2D 20 0A 0D
 000017B2  20 20 20 2D 2D	         BYTE "   -------------- ", 0ah, 0dh
	   2D 2D 2D 2D 2D
	   2D 2D 2D 2D 2D
	   2D 2D 20 0A 0D
 000017C6  20 20 20 20 20	         BYTE "                Chicken Quorma   : 169 per Dish. ", 0ah, 0dh
	   20 20 20 20 20
	   20 20 20 20 20
	   20 43 68 69 63
	   6B 65 6E 20 51
	   75 6F 72 6D 61
	   20 20 20 3A 20
	   31 36 39 20 70
	   65 72 20 44 69
	   73 68 2E 20 0A
	   0D
 000017F9  09 09 50 75 6C	         BYTE "		Pullao           : 149 per Dish. ", 0ah, 0dh
	   6C 61 6F 20 20
	   20 20 20 20 20
	   20 20 20 20 3A
	   20 31 34 39 20
	   70 65 72 20 44
	   69 73 68 2E 20
	   0A 0D
 0000181E  09 09 43 68 69	         BYTE "		Chicken Karahi   :  89 per Dish. ", 0ah, 0dh
	   63 6B 65 6E 20
	   4B 61 72 61 68
	   69 20 20 20 3A
	   20 20 38 39 20
	   70 65 72 20 44
	   69 73 68 2E 20
	   0A 0D
 00001843  09 09 43 68 69	         BYTE "		Chicken Tikka    :  69 per Dish. ", 0ah, 0dh
	   63 6B 65 6E 20
	   54 69 6B 6B 61
	   20 20 20 20 3A
	   20 20 36 39 20
	   70 65 72 20 44
	   69 73 68 2E 20
	   0A 0D
 00001868  09 09 4D 75 72	         BYTE "		Murgh Haleem     :  69 per Dish. ", 0ah, 0dh
	   67 68 20 48 61
	   6C 65 65 6D 20
	   20 20 20 20 3A
	   20 20 36 39 20
	   70 65 72 20 44
	   69 73 68 2E 20
	   0A 0D
 0000188D  09 09 4E 61 61		     BYTE "		Naan             :  10 per Piece. ", 0ah, 0dh
	   6E 20 20 20 20
	   20 20 20 20 20
	   20 20 20 20 3A
	   20 20 31 30 20
	   70 65 72 20 50
	   69 65 63 65 2E
	   20 0A 0D
 000018B3  09 09 52 6F 74	         BYTE "		Roti             :  05 per Piece. ", 0ah, 0dh, 0ah, 0dh
	   69 20 20 20 20
	   20 20 20 20 20
	   20 20 20 20 3A
	   20 20 30 35 20
	   70 65 72 20 50
	   69 65 63 65 2E
	   20 0A 0D 0A 0D
 000018DB  20 20 20 2D 2D			 BYTE "   ------------- ", 0ah, 0dh
	   2D 2D 2D 2D 2D
	   2D 2D 2D 2D 2D
	   2D 20 0A 0D
 000018EE  20 20 20 2D 2D	         BYTE "   -- Chinese -- ", 0ah, 0dh
	   20 43 68 69 6E
	   65 73 65 20 2D
	   2D 20 0A 0D
 00001901  20 20 20 2D 2D	         BYTE "   ------------- ", 0ah, 0dh
	   2D 2D 2D 2D 2D
	   2D 2D 2D 2D 2D
	   2D 20 0A 0D
 00001914  09 09 43 68 69	         BYTE "		Chicken Manchurian with rice : 169 per Plate ", 0ah, 0dh
	   63 6B 65 6E 20
	   4D 61 6E 63 68
	   75 72 69 61 6E
	   20 77 69 74 68
	   20 72 69 63 65
	   20 3A 20 31 36
	   39 20 70 65 72
	   20 50 6C 61 74
	   65 20 0A 0D
 00001945  09 09 45 67 67	         BYTE "		Egg Fried Rice               : 149 per Plate ", 0ah, 0dh
	   20 46 72 69 65
	   64 20 52 69 63
	   65 20 20 20 20
	   20 20 20 20 20
	   20 20 20 20 20
	   20 3A 20 31 34
	   39 20 70 65 72
	   20 50 6C 61 74
	   65 20 0A 0D
 00001976  09 09 43 68 69	         BYTE "		Chicken Macaroni             :  99 per Plate ", 0ah, 0dh
	   63 6B 65 6E 20
	   4D 61 63 61 72
	   6F 6E 69 20 20
	   20 20 20 20 20
	   20 20 20 20 20
	   20 3A 20 20 39
	   39 20 70 65 72
	   20 50 6C 61 74
	   65 20 0A 0D
 000019A7  09 09 43 68 69	         BYTE "		Chicken Cuisine              :  79 per Plate ", 0ah, 0dh, 0ah, 0dh
	   63 6B 65 6E 20
	   43 75 69 73 69
	   6E 65 20 20 20
	   20 20 20 20 20
	   20 20 20 20 20
	   20 3A 20 20 37
	   39 20 70 65 72
	   20 50 6C 61 74
	   65 20 0A 0D 0A
	   0D
 000019DA  20 20 20 2D 2D	         BYTE "   --------------- ", 0ah, 0dh
	   2D 2D 2D 2D 2D
	   2D 2D 2D 2D 2D
	   2D 2D 2D 20 0A
	   0D
 000019EF  20 20 20 2D 2D	         BYTE "   -- Fast Food -- ", 0ah, 0dh
	   20 46 61 73 74
	   20 46 6F 6F 64
	   20 2D 2D 20 0A
	   0D
 00001A04  20 20 20 2D 2D	         BYTE "   --------------- ", 0ah, 0dh
	   2D 2D 2D 2D 2D
	   2D 2D 2D 2D 2D
	   2D 2D 2D 20 0A
	   0D
 00001A19  09 09 43 68 69	         BYTE "		Chicken Pizza    : 149 per Pizza. ", 0ah, 0dh
	   63 6B 65 6E 20
	   50 69 7A 7A 61
	   20 20 20 20 3A
	   20 31 34 39 20
	   70 65 72 20 50
	   69 7A 7A 61 2E
	   20 0A 0D
 00001A3F  09 09 5A 69 6E	         BYTE "		Zinger Burger    :  99 per Piece. ", 0ah, 0dh
	   67 65 72 20 42
	   75 72 67 65 72
	   20 20 20 20 3A
	   20 20 39 39 20
	   70 65 72 20 50
	   69 65 63 65 2E
	   20 0A 0D
 00001A65  09 09 43 68 69	         BYTE "		Chicken Shawarma :  79 per Piece. ", 0ah, 0dh
	   63 6B 65 6E 20
	   53 68 61 77 61
	   72 6D 61 20 3A
	   20 20 37 39 20
	   70 65 72 20 50
	   69 65 63 65 2E
	   20 0A 0D
 00001A8B  09 09 46 72 65	         BYTE "		French Fries     :  49 per Packet. ", 0ah, 0dh,  0ah, 0dh
	   6E 63 68 20 46
	   72 69 65 73 20
	   20 20 20 20 3A
	   20 20 34 39 20
	   70 65 72 20 50
	   61 63 6B 65 74
	   2E 20 0A 0D 0A
	   0D
 00001AB4  20 20 20 2D 2D	         BYTE "   ------------- ", 0ah, 0dh
	   2D 2D 2D 2D 2D
	   2D 2D 2D 2D 2D
	   2D 20 0A 0D
 00001AC7  20 20 20 2D 2D	         BYTE "   -- Dessert -- ", 0ah, 0dh
	   20 44 65 73 73
	   65 72 74 20 2D
	   2D 20 0A 0D
 00001ADA  20 20 20 2D 2D	         BYTE "   ------------- ", 0ah, 0dh
	   2D 2D 2D 2D 2D
	   2D 2D 2D 2D 2D
	   2D 20 0A 0D
 00001AED  09 09 50 69 6E	         BYTE "		Pineapple Cake    : 799 per Pound. ", 0ah, 0dh
	   65 61 70 70 6C
	   65 20 43 61 6B
	   65 20 20 20 20
	   3A 20 37 39 39
	   20 70 65 72 20
	   50 6F 75 6E 64
	   2E 20 0A 0D
 00001B14  09 09 43 68 6F	         BYTE "		Chocolate Cake    : 699 per Pound. ", 0ah, 0dh
	   63 6F 6C 61 74
	   65 20 43 61 6B
	   65 20 20 20 20
	   3A 20 36 39 39
	   20 70 65 72 20
	   50 6F 75 6E 64
	   2E 20 0A 0D
 00001B3B  09 09 43 75 73	         BYTE "		Custard           :  99 per Bowl. ", 0ah, 0dh
	   74 61 72 64 20
	   20 20 20 20 20
	   20 20 20 20 20
	   3A 20 20 39 39
	   20 70 65 72 20
	   42 6F 77 6C 2E
	   20 0A 0D
 00001B61  09 09 49 63 65	         BYTE "		Ice-cream         :  69 per Cup. ", 0ah, 0dh, 0ah, 0dh
	   2D 63 72 65 61
	   6D 20 20 20 20
	   20 20 20 20 20
	   3A 20 20 36 39
	   20 70 65 72 20
	   43 75 70 2E 20
	   0A 0D 0A 0D
 00001B88  20 20 20 2D 2D	         BYTE "   ------------ ", 0ah, 0dh
	   2D 2D 2D 2D 2D
	   2D 2D 2D 2D 2D
	   20 0A 0D
 00001B9A  20 20 20 2D 2D	         BYTE "   -- Drinks -- ", 0ah, 0dh
	   20 44 72 69 6E
	   6B 73 20 2D 2D
	   20 0A 0D
 00001BAC  20 20 20 2D 2D	         BYTE "   ------------ ", 0ah, 0dh
	   2D 2D 2D 2D 2D
	   2D 2D 2D 2D 2D
	   20 0A 0D
 00001BBE  09 09 43 6F 63	         BYTE "		Coca Cola       : 99 (1.5) Liters. ", 0ah, 0dh
	   61 20 43 6F 6C
	   61 20 20 20 20
	   20 20 20 3A 20
	   39 39 20 28 31
	   2E 35 29 20 4C
	   69 74 65 72 73
	   2E 20 0A 0D
 00001BE5  09 09 53 70 72	         BYTE "		Sprite          : 99 (1.5) Liters. ", 0ah, 0dh
	   69 74 65 20 20
	   20 20 20 20 20
	   20 20 20 3A 20
	   39 39 20 28 31
	   2E 35 29 20 4C
	   69 74 65 72 73
	   2E 20 0A 0D
 00001C0C  09 09 43 6F 63	         BYTE "		Coca Cola       : 49 Regular. ", 0ah, 0dh
	   61 20 43 6F 6C
	   61 20 20 20 20
	   20 20 20 3A 20
	   34 39 20 52 65
	   67 75 6C 61 72
	   2E 20 0A 0D
 00001C2E  09 09 53 70 72	         BYTE "		Sprite          : 49 Regular. ", 0ah, 0dh
	   69 74 65 20 20
	   20 20 20 20 20
	   20 20 20 3A 20
	   34 39 20 52 65
	   67 75 6C 61 72
	   2E 20 0A 0D
 00001C50  09 09 50 69 6E	         BYTE "		Pineapple Juice : 69 per Glass. ", 0ah, 0dh
	   65 61 70 70 6C
	   65 20 4A 75 69
	   63 65 20 3A 20
	   36 39 20 70 65
	   72 20 47 6C 61
	   73 73 2E 20 0A
	   0D
 00001C74  09 09 4D 69 6E	         BYTE "		Mint Margarita  : 64 per Glass. ", 0ah, 0dh
	   74 20 4D 61 72
	   67 61 72 69 74
	   61 20 20 3A 20
	   36 34 20 70 65
	   72 20 47 6C 61
	   73 73 2E 20 0A
	   0D
 00001C98  09 09 43 6F 66			 BYTE "		Coffee          : 89 per Cup. ", 0ah, 0dh
	   66 65 65 20 20
	   20 20 20 20 20
	   20 20 20 3A 20
	   38 39 20 70 65
	   72 20 43 75 70
	   2E 20 0A 0D
 00001CBA  09 09 54 65 61			 BYTE "		Tea             : 49 per Cup. ", 0ah, 0dh, 0
	   20 20 20 20 20
	   20 20 20 20 20
	   20 20 20 3A 20
	   34 39 20 70 65
	   72 20 43 75 70
	   2E 20 0A 0D 00

 00001CDD 20 20 20 20 20	deals    BYTE "                        ---------------------- ", 0ah, 0dh
	   20 20 20 20 20
	   20 20 20 20 20
	   20 20 20 20 20
	   20 20 20 20 2D
	   2D 2D 2D 2D 2D
	   2D 2D 2D 2D 2D
	   2D 2D 2D 2D 2D
	   2D 2D 2D 2D 2D
	   2D 20 0A 0D
 00001D0E  20 20 20 20 20	         BYTE "                        -- Deals and Offers -- ", 0ah, 0dh
	   20 20 20 20 20
	   20 20 20 20 20
	   20 20 20 20 20
	   20 20 20 20 2D
	   2D 20 44 65 61
	   6C 73 20 61 6E
	   64 20 4F 66 66
	   65 72 73 20 2D
	   2D 20 0A 0D
 00001D3F  20 20 20 20 20	         BYTE "                        ---------------------- ", 0ah, 0dh
	   20 20 20 20 20
	   20 20 20 20 20
	   20 20 20 20 20
	   20 20 20 20 2D
	   2D 2D 2D 2D 2D
	   2D 2D 2D 2D 2D
	   2D 2D 2D 2D 2D
	   2D 2D 2D 2D 2D
	   2D 20 0A 0D
 00001D70  20 2A 20 59 6F			 BYTE " * You will Get 5% Discount on any order above RS 1,999. * ", 0ah, 0dh, 0ah, 0dh
	   75 20 77 69 6C
	   6C 20 47 65 74
	   20 35 25 20 44
	   69 73 63 6F 75
	   6E 74 20 6F 6E
	   20 61 6E 79 20
	   6F 72 64 65 72
	   20 61 62 6F 76
	   65 20 52 53 20
	   31 2C 39 39 39
	   2E 20 2A 20 0A
	   0D 0A 0D
 00001DAF  20 46 6F 72 20			 BYTE " For any Deal enter the related number...", 0ah, 0dh
	   61 6E 79 20 44
	   65 61 6C 20 65
	   6E 74 65 72 20
	   74 68 65 20 72
	   65 6C 61 74 65
	   64 20 6E 75 6D
	   62 65 72 2E 2E
	   2E 0A 0D
 00001DDA  20 44 65 61 6C			 BYTE " Deal 1 : Buy any 3 or more Oriental Dishes and get 1 Dessert free. ", 0ah, 0dh
	   20 31 20 3A 20
	   42 75 79 20 61
	   6E 79 20 33 20
	   6F 72 20 6D 6F
	   72 65 20 4F 72
	   69 65 6E 74 61
	   6C 20 44 69 73
	   68 65 73 20 61
	   6E 64 20 67 65
	   74 20 31 20 44
	   65 73 73 65 72
	   74 20 66 72 65
	   65 2E 20 0A 0D
 00001E20  20 44 65 61 6C			 BYTE " Deal 2 : Buy any 2 or more Chinese Dishes and get 1 Drink free. ", 0ah, 0dh
	   20 32 20 3A 20
	   42 75 79 20 61
	   6E 79 20 32 20
	   6F 72 20 6D 6F
	   72 65 20 43 68
	   69 6E 65 73 65
	   20 44 69 73 68
	   65 73 20 61 6E
	   64 20 67 65 74
	   20 31 20 44 72
	   69 6E 6B 20 66
	   72 65 65 2E 20
	   0A 0D
 00001E63  20 44 65 61 6C			 BYTE " Deal 3 : Buy any 2 or more Fast Foods and get 1 Regular Drink free. ", 0ah, 0dh
	   20 33 20 3A 20
	   42 75 79 20 61
	   6E 79 20 32 20
	   6F 72 20 6D 6F
	   72 65 20 46 61
	   73 74 20 46 6F
	   6F 64 73 20 61
	   6E 64 20 67 65
	   74 20 31 20 52
	   65 67 75 6C 61
	   72 20 44 72 69
	   6E 6B 20 66 72
	   65 65 2E 20 0A
	   0D
 00001EAA  20 44 65 61 6C			 BYTE " Deal 4 : Buy any 2 or more '1.5' Liters Drink and get 1 Regular Drink free. ", 0ah, 0dh
	   20 34 20 3A 20
	   42 75 79 20 61
	   6E 79 20 32 20
	   6F 72 20 6D 6F
	   72 65 20 27 31
	   2E 35 27 20 4C
	   69 74 65 72 73
	   20 44 72 69 6E
	   6B 20 61 6E 64
	   20 67 65 74 20
	   31 20 52 65 67
	   75 6C 61 72 20
	   44 72 69 6E 6B
	   20 66 72 65 65
	   2E 20 0A 0D
 00001EF9  20 20 20 20 20			 BYTE "      5 : Exit Deal Menu. ", 0ah, 0dh, 0
	   20 35 20 3A 20
	   45 78 69 74 20
	   44 65 61 6C 20
	   4D 65 6E 75 2E
	   20 0A 0D 00
						 
 00001F16 20 45 6E 74 65	regDrink BYTE " Enter 1 : Coca Cola       : 49 Regular. ", 0ah, 0dh
	   72 20 31 20 3A
	   20 43 6F 63 61
	   20 43 6F 6C 61
	   20 20 20 20 20
	   20 20 3A 20 34
	   39 20 52 65 67
	   75 6C 61 72 2E
	   20 0A 0D
 00001F41  20 45 6E 74 65			 BYTE " Enter 2 : Sprite          : 49 Regular. ", 0ah, 0dh
	   72 20 32 20 3A
	   20 53 70 72 69
	   74 65 20 20 20
	   20 20 20 20 20
	   20 20 3A 20 34
	   39 20 52 65 67
	   75 6C 61 72 2E
	   20 0A 0D
 00001F6C  20 45 6E 74 65			 BYTE " Enter 3 : Pineapple Juice : 69 per Glass. ", 0ah, 0dh
	   72 20 33 20 3A
	   20 50 69 6E 65
	   61 70 70 6C 65
	   20 4A 75 69 63
	   65 20 3A 20 36
	   39 20 70 65 72
	   20 47 6C 61 73
	   73 2E 20 0A 0D
 00001F99  20 45 6E 74 65			 BYTE " Enter 4 : Mint Margarita  : 64 per Glass. ", 0ah, 0dh
	   72 20 34 20 3A
	   20 4D 69 6E 74
	   20 4D 61 72 67
	   61 72 69 74 61
	   20 20 3A 20 36
	   34 20 70 65 72
	   20 47 6C 61 73
	   73 2E 20 0A 0D
 00001FC6  20 45 6E 74 65			 BYTE " Enter 5 : To Exit. ", 0ah, 0dh , 0
	   72 20 35 20 3A
	   20 54 6F 20 45
	   78 69 74 2E 20
	   0A 0D 00

 00001FDD 20 45 6E 74 65	drinks1_5 BYTE " Enter 1 : Coca Cola       : 99 (1.5) Liters. ", 0ah, 0dh
	   72 20 31 20 3A
	   20 43 6F 63 61
	   20 43 6F 6C 61
	   20 20 20 20 20
	   20 20 3A 20 39
	   39 20 28 31 2E
	   35 29 20 4C 69
	   74 65 72 73 2E
	   20 0A 0D
 0000200D  20 45 6E 74 65			 BYTE " Enter 2 : Sprite          : 99 (1.5) Liters. ", 0ah, 0dh
	   72 20 32 20 3A
	   20 53 70 72 69
	   74 65 20 20 20
	   20 20 20 20 20
	   20 20 3A 20 39
	   39 20 28 31 2E
	   35 29 20 4C 69
	   74 65 72 73 2E
	   20 0A 0D
 0000203D  20 45 6E 74 65			 BYTE " Enter 3 : To Exit. ", 0ah, 0dh, 0
	   72 20 33 20 3A
	   20 54 6F 20 45
	   78 69 74 2E 20
	   0A 0D 00

 00002054 20 2D 2D 2D 2D	cMenu    BYTE " ---------- ", 0ah, 0dh
	   2D 2D 2D 2D 2D
	   2D 20 0A 0D
 00002062  20 2D 2D 20 4D	         BYTE " -- Menu -- ", 0ah, 0dh                            ; Choice Menu...
	   65 6E 75 20 2D
	   2D 20 0A 0D
 00002070  20 2D 2D 2D 2D	         BYTE " ---------- ", 0ah, 0dh
	   2D 2D 2D 2D 2D
	   2D 20 0A 0D
 0000207E  20 45 6E 74 65	         BYTE " Enter 1 : For Oriental.", 0ah, 0dh
	   72 20 31 20 3A
	   20 46 6F 72 20
	   4F 72 69 65 6E
	   74 61 6C 2E 0A
	   0D
 00002098  20 45 6E 74 65			 BYTE " Enter 2 : For Chinese.", 0ah, 0dh
	   72 20 32 20 3A
	   20 46 6F 72 20
	   43 68 69 6E 65
	   73 65 2E 0A 0D
 000020B1  20 45 6E 74 65			 BYTE " Enter 3 : For Fast Food.", 0ah, 0dh
	   72 20 33 20 3A
	   20 46 6F 72 20
	   46 61 73 74 20
	   46 6F 6F 64 2E
	   0A 0D
 000020CC  20 45 6E 74 65			 BYTE " Enter 4 : For Dessert.", 0ah, 0dh
	   72 20 34 20 3A
	   20 46 6F 72 20
	   44 65 73 73 65
	   72 74 2E 0A 0D
 000020E5  20 45 6E 74 65			 BYTE " Enter 5 : For Drinks.", 0ah, 0dh
	   72 20 35 20 3A
	   20 46 6F 72 20
	   44 72 69 6E 6B
	   73 2E 0A 0D
 000020FD  20 45 6E 74 65			 BYTE " Enter 6 : To Exit.", 0ah, 0dh, 0
	   72 20 36 20 3A
	   20 54 6F 20 45
	   78 69 74 2E 0A
	   0D 00

 00002113 20 2D 2D 2D 2D	oriental BYTE " -------------- ", 0ah, 0dh
	   2D 2D 2D 2D 2D
	   2D 2D 2D 2D 2D
	   20 0A 0D
 00002125  20 2D 2D 20 4F	         BYTE " -- Oriental -- ", 0ah, 0dh
	   72 69 65 6E 74
	   61 6C 20 2D 2D
	   20 0A 0D
 00002137  20 2D 2D 2D 2D	         BYTE " -------------- ", 0ah, 0dh
	   2D 2D 2D 2D 2D
	   2D 2D 2D 2D 2D
	   20 0A 0D
 00002149  20 45 6E 74 65	         BYTE " Enter 1 : Chicken Quorma   : 169 per Dish. ", 0ah, 0dh
	   72 20 31 20 3A
	   20 43 68 69 63
	   6B 65 6E 20 51
	   75 6F 72 6D 61
	   20 20 20 3A 20
	   31 36 39 20 70
	   65 72 20 44 69
	   73 68 2E 20 0A
	   0D
 00002177  20 45 6E 74 65	         BYTE " Enter 2 : Pullao           : 149 per Dish. ", 0ah, 0dh
	   72 20 32 20 3A
	   20 50 75 6C 6C
	   61 6F 20 20 20
	   20 20 20 20 20
	   20 20 20 3A 20
	   31 34 39 20 70
	   65 72 20 44 69
	   73 68 2E 20 0A
	   0D
 000021A5  20 45 6E 74 65		     BYTE " Enter 3 : Chicken Briyani  :  99 per Dish. ", 0ah, 0dh
	   72 20 33 20 3A
	   20 43 68 69 63
	   6B 65 6E 20 42
	   72 69 79 61 6E
	   69 20 20 3A 20
	   20 39 39 20 70
	   65 72 20 44 69
	   73 68 2E 20 0A
	   0D
 000021D3  20 45 6E 74 65	         BYTE " Enter 4 : Chicken Karahi   :  89 per Dish. ", 0ah, 0dh
	   72 20 34 20 3A
	   20 43 68 69 63
	   6B 65 6E 20 4B
	   61 72 61 68 69
	   20 20 20 3A 20
	   20 38 39 20 70
	   65 72 20 44 69
	   73 68 2E 20 0A
	   0D
 00002201  20 45 6E 74 65	         BYTE " Enter 5 : Chicken Tikka    :  69 per Dish. ", 0ah, 0dh
	   72 20 35 20 3A
	   20 43 68 69 63
	   6B 65 6E 20 54
	   69 6B 6B 61 20
	   20 20 20 3A 20
	   20 36 39 20 70
	   65 72 20 44 69
	   73 68 2E 20 0A
	   0D
 0000222F  20 45 6E 74 65	         BYTE " Enter 6 : Murgh Haleem     :  69 per Dish. ", 0ah, 0dh
	   72 20 36 20 3A
	   20 4D 75 72 67
	   68 20 48 61 6C
	   65 65 6D 20 20
	   20 20 20 3A 20
	   20 36 39 20 70
	   65 72 20 44 69
	   73 68 2E 20 0A
	   0D
 0000225D  20 45 6E 74 65		     BYTE " Enter 7 : Naan             :  10 per Piece. ", 0ah, 0dh
	   72 20 37 20 3A
	   20 4E 61 61 6E
	   20 20 20 20 20
	   20 20 20 20 20
	   20 20 20 3A 20
	   20 31 30 20 70
	   65 72 20 50 69
	   65 63 65 2E 20
	   0A 0D
 0000228C  20 45 6E 74 65	         BYTE " Enter 8 : Roti             :  05 per Piece. ", 0ah, 0dh
	   72 20 38 20 3A
	   20 52 6F 74 69
	   20 20 20 20 20
	   20 20 20 20 20
	   20 20 20 3A 20
	   20 30 35 20 70
	   65 72 20 50 69
	   65 63 65 2E 20
	   0A 0D
 000022BB  20 45 6E 74 65			 BYTE " Enter 9 : To Exit. ", 0ah, 0dh, 0
	   72 20 39 20 3A
	   20 54 6F 20 45
	   78 69 74 2E 20
	   0A 0D 00

 000022D2 20 2D 2D 2D 2D	chinese  BYTE " ------------- ", 0ah, 0dh
	   2D 2D 2D 2D 2D
	   2D 2D 2D 2D 20
	   0A 0D
 000022E3  20 2D 2D 20 43	         BYTE " -- Chinese -- ", 0ah, 0dh
	   68 69 6E 65 73
	   65 20 2D 2D 20
	   0A 0D
 000022F4  20 2D 2D 2D 2D	         BYTE " ------------- ", 0ah, 0dh
	   2D 2D 2D 2D 2D
	   2D 2D 2D 2D 20
	   0A 0D
 00002305  20 45 6E 74 65	         BYTE " Enter 1 : Chicken Manchurian with rice : 169 per Dish ", 0ah, 0dh
	   72 20 31 20 3A
	   20 43 68 69 63
	   6B 65 6E 20 4D
	   61 6E 63 68 75
	   72 69 61 6E 20
	   77 69 74 68 20
	   72 69 63 65 20
	   3A 20 31 36 39
	   20 70 65 72 20
	   44 69 73 68 20
	   0A 0D
 0000233E  20 45 6E 74 65	         BYTE " Enter 2 : Egg Fried Rice               : 149 per Dish ", 0ah, 0dh
	   72 20 32 20 3A
	   20 45 67 67 20
	   46 72 69 65 64
	   20 52 69 63 65
	   20 20 20 20 20
	   20 20 20 20 20
	   20 20 20 20 20
	   3A 20 31 34 39
	   20 70 65 72 20
	   44 69 73 68 20
	   0A 0D
 00002377  20 45 6E 74 65	         BYTE " Enter 3 : Chicken Macaroni             :  99 per Dish ", 0ah, 0dh
	   72 20 33 20 3A
	   20 43 68 69 63
	   6B 65 6E 20 4D
	   61 63 61 72 6F
	   6E 69 20 20 20
	   20 20 20 20 20
	   20 20 20 20 20
	   3A 20 20 39 39
	   20 70 65 72 20
	   44 69 73 68 20
	   0A 0D
 000023B0  20 45 6E 74 65	         BYTE " Enter 4 : Chicken Cuisine              :  79 per Dish ", 0ah, 0dh
	   72 20 34 20 3A
	   20 43 68 69 63
	   6B 65 6E 20 43
	   75 69 73 69 6E
	   65 20 20 20 20
	   20 20 20 20 20
	   20 20 20 20 20
	   3A 20 20 37 39
	   20 70 65 72 20
	   44 69 73 68 20
	   0A 0D
 000023E9  20 45 6E 74 65			 BYTE " Enter 5 : To Exit. ", 0ah, 0dh, 0
	   72 20 35 20 3A
	   20 54 6F 20 45
	   78 69 74 2E 20
	   0A 0D 00

 00002400 20 2D 2D 2D 2D	fastFood BYTE " --------------- ", 0ah, 0dh
	   2D 2D 2D 2D 2D
	   2D 2D 2D 2D 2D
	   2D 20 0A 0D
 00002413  20 2D 2D 20 46	         BYTE " -- Fast Food -- ", 0ah, 0dh
	   61 73 74 20 46
	   6F 6F 64 20 2D
	   2D 20 0A 0D
 00002426  20 2D 2D 2D 2D	         BYTE " --------------- ", 0ah, 0dh
	   2D 2D 2D 2D 2D
	   2D 2D 2D 2D 2D
	   2D 20 0A 0D
 00002439  20 45 6E 74 65	         BYTE " Enter 1 : Chicken Pizza    : 149 per Pizza. ", 0ah, 0dh
	   72 20 31 20 3A
	   20 43 68 69 63
	   6B 65 6E 20 50
	   69 7A 7A 61 20
	   20 20 20 3A 20
	   31 34 39 20 70
	   65 72 20 50 69
	   7A 7A 61 2E 20
	   0A 0D
 00002468  20 45 6E 74 65	         BYTE " Enter 2 : Zinger Burger    :  99 per Piece. ", 0ah, 0dh
	   72 20 32 20 3A
	   20 5A 69 6E 67
	   65 72 20 42 75
	   72 67 65 72 20
	   20 20 20 3A 20
	   20 39 39 20 70
	   65 72 20 50 69
	   65 63 65 2E 20
	   0A 0D
 00002497  20 45 6E 74 65	         BYTE " Enter 3 : Chicken Shawarma :  79 per Piece. ", 0ah, 0dh
	   72 20 33 20 3A
	   20 43 68 69 63
	   6B 65 6E 20 53
	   68 61 77 61 72
	   6D 61 20 3A 20
	   20 37 39 20 70
	   65 72 20 50 69
	   65 63 65 2E 20
	   0A 0D
 000024C6  20 45 6E 74 65	         BYTE " Enter 4 : French Fries     :  49 per Packet. ", 0ah, 0dh
	   72 20 34 20 3A
	   20 46 72 65 6E
	   63 68 20 46 72
	   69 65 73 20 20
	   20 20 20 3A 20
	   20 34 39 20 70
	   65 72 20 50 61
	   63 6B 65 74 2E
	   20 0A 0D
 000024F6  20 45 6E 74 65			 BYTE " Enter 5 : To Exit. ", 0ah, 0dh, 0
	   72 20 35 20 3A
	   20 54 6F 20 45
	   78 69 74 2E 20
	   0A 0D 00

 0000250D 20 2D 2D 2D 2D	dessert  BYTE " ------------- ", 0ah, 0dh
	   2D 2D 2D 2D 2D
	   2D 2D 2D 2D 20
	   0A 0D
 0000251E  20 2D 2D 20 44	         BYTE " -- Dessert -- ", 0ah, 0dh
	   65 73 73 65 72
	   74 20 2D 2D 20
	   0A 0D
 0000252F  20 2D 2D 2D 2D	         BYTE " ------------- ", 0ah, 0dh
	   2D 2D 2D 2D 2D
	   2D 2D 2D 2D 20
	   0A 0D
 00002540  20 45 6E 74 65	         BYTE " Enter 1 : Pineapple Cake    : 799 per Pound. ", 0ah, 0dh
	   72 20 31 20 3A
	   20 50 69 6E 65
	   61 70 70 6C 65
	   20 43 61 6B 65
	   20 20 20 20 3A
	   20 37 39 39 20
	   70 65 72 20 50
	   6F 75 6E 64 2E
	   20 0A 0D
 00002570  20 45 6E 74 65	         BYTE " Enter 2 : Chocolate Cake    : 699 per Pound. ", 0ah, 0dh
	   72 20 32 20 3A
	   20 43 68 6F 63
	   6F 6C 61 74 65
	   20 43 61 6B 65
	   20 20 20 20 3A
	   20 36 39 39 20
	   70 65 72 20 50
	   6F 75 6E 64 2E
	   20 0A 0D
 000025A0  20 45 6E 74 65	         BYTE " Enter 3 : Custard           :  99 per Bowl. ", 0ah, 0dh
	   72 20 33 20 3A
	   20 43 75 73 74
	   61 72 64 20 20
	   20 20 20 20 20
	   20 20 20 20 3A
	   20 20 39 39 20
	   70 65 72 20 42
	   6F 77 6C 2E 20
	   0A 0D
 000025CF  20 45 6E 74 65	         BYTE " Enter 4 : Ice-cream         :  69 per Cup. ", 0ah, 0dh
	   72 20 34 20 3A
	   20 49 63 65 2D
	   63 72 65 61 6D
	   20 20 20 20 20
	   20 20 20 20 3A
	   20 20 36 39 20
	   70 65 72 20 43
	   75 70 2E 20 0A
	   0D
 000025FD  20 45 6E 74 65			 BYTE " Enter 5 : To Exit. ", 0ah, 0dh, 0
	   72 20 35 20 3A
	   20 54 6F 20 45
	   78 69 74 2E 20
	   0A 0D 00

 00002614 20 2D 2D 2D 2D	drinks   BYTE " ------------ ", 0ah, 0dh
	   2D 2D 2D 2D 2D
	   2D 2D 2D 20 0A
	   0D
 00002624  20 2D 2D 20 44	         BYTE " -- Drinks -- ", 0ah, 0dh
	   72 69 6E 6B 73
	   20 2D 2D 20 0A
	   0D
 00002634  20 2D 2D 2D 2D	         BYTE " ------------ ", 0ah, 0dh
	   2D 2D 2D 2D 2D
	   2D 2D 2D 20 0A
	   0D
 00002644  20 45 6E 74 65		     BYTE " Enter 1 : Coca Cola       : 99 (1.5) Liters. ", 0ah, 0dh
	   72 20 31 20 3A
	   20 43 6F 63 61
	   20 43 6F 6C 61
	   20 20 20 20 20
	   20 20 3A 20 39
	   39 20 28 31 2E
	   35 29 20 4C 69
	   74 65 72 73 2E
	   20 0A 0D
 00002674  20 45 6E 74 65	         BYTE " Enter 2 : Sprite          : 99 (1.5) Liters. ", 0ah, 0dh
	   72 20 32 20 3A
	   20 53 70 72 69
	   74 65 20 20 20
	   20 20 20 20 20
	   20 20 3A 20 39
	   39 20 28 31 2E
	   35 29 20 4C 69
	   74 65 72 73 2E
	   20 0A 0D
 000026A4  20 45 6E 74 65	         BYTE " Enter 3 : Coca Cola       : 49 Regular. ", 0ah, 0dh
	   72 20 33 20 3A
	   20 43 6F 63 61
	   20 43 6F 6C 61
	   20 20 20 20 20
	   20 20 3A 20 34
	   39 20 52 65 67
	   75 6C 61 72 2E
	   20 0A 0D
 000026CF  20 45 6E 74 65	         BYTE " Enter 4 : Sprite          : 49 Regular. ", 0ah, 0dh
	   72 20 34 20 3A
	   20 53 70 72 69
	   74 65 20 20 20
	   20 20 20 20 20
	   20 20 3A 20 34
	   39 20 52 65 67
	   75 6C 61 72 2E
	   20 0A 0D
 000026FA  20 45 6E 74 65	         BYTE " Enter 5 : Pineapple Juice : 69 per Glass. ", 0ah, 0dh
	   72 20 35 20 3A
	   20 50 69 6E 65
	   61 70 70 6C 65
	   20 4A 75 69 63
	   65 20 3A 20 36
	   39 20 70 65 72
	   20 47 6C 61 73
	   73 2E 20 0A 0D
 00002727  20 45 6E 74 65	         BYTE " Enter 6 : Mint Margarita  : 64 per Glass. ", 0ah, 0dh
	   72 20 36 20 3A
	   20 4D 69 6E 74
	   20 4D 61 72 67
	   61 72 69 74 61
	   20 20 3A 20 36
	   34 20 70 65 72
	   20 47 6C 61 73
	   73 2E 20 0A 0D
 00002754  20 45 6E 74 65		     BYTE " Enter 7 : Coffee          : 89 per Cup. ", 0ah, 0dh
	   72 20 37 20 3A
	   20 43 6F 66 66
	   65 65 20 20 20
	   20 20 20 20 20
	   20 20 3A 20 38
	   39 20 70 65 72
	   20 43 75 70 2E
	   20 0A 0D
 0000277F  20 45 6E 74 65		     BYTE " Enter 8 : Tea             : 49 per Cup. ", 0ah, 0dh
	   72 20 38 20 3A
	   20 54 65 61 20
	   20 20 20 20 20
	   20 20 20 20 20
	   20 20 3A 20 34
	   39 20 70 65 72
	   20 43 75 70 2E
	   20 0A 0D
 000027AA  20 45 6E 74 65	         BYTE " Enter 9 : To Exit. ", 0ah, 0dh , 0
	   72 20 39 20 3A
	   20 54 6F 20 45
	   78 69 74 2E 20
	   0A 0D 00

 000027C1 50 61 73 73 77	passFileName BYTE "Password.txt", 0
	   6F 72 64 2E 74
	   78 74 00
 000027CE 53 61 6C 65 73	saleFileName BYTE "Sales.txt", 0
	   2E 74 78 74 00
 000027D8 20 45 6E 74 65	passWord BYTE " Enter Current Password less than 16 Characters : ", 0
	   72 20 43 75 72
	   72 65 6E 74 20
	   50 61 73 73 77
	   6F 72 64 20 6C
	   65 73 73 20 74
	   68 61 6E 20 31
	   36 20 43 68 61
	   72 61 63 74 65
	   72 73 20 3A 20
	   00
 0000280B 20 45 6E 74 65	newPass  BYTE " Enter New Password less than 16 Characters : ", 0
	   72 20 4E 65 77
	   20 50 61 73 73
	   77 6F 72 64 20
	   6C 65 73 73 20
	   74 68 61 6E 20
	   31 36 20 43 68
	   61 72 61 63 74
	   65 72 73 20 3A
	   20 00
 0000283A 20 20 2D 2D 2D	wrongPas BYTE "  ------------------------------------------ ", 0ah, 0dh
	   2D 2D 2D 2D 2D
	   2D 2D 2D 2D 2D
	   2D 2D 2D 2D 2D
	   2D 2D 2D 2D 2D
	   2D 2D 2D 2D 2D
	   2D 2D 2D 2D 2D
	   2D 2D 2D 2D 2D
	   2D 2D 2D 2D 20
	   0A 0D
 00002869  20 7C 50 61 73	         BYTE " |Password is incorrect or Input is Invalid.|", 0ah, 0dh
	   73 77 6F 72 64
	   20 69 73 20 69
	   6E 63 6F 72 72
	   65 63 74 20 6F
	   72 20 49 6E 70
	   75 74 20 69 73
	   20 49 6E 76 61
	   6C 69 64 2E 7C
	   0A 0D
 00002898  20 20 2D 2D 2D			 BYTE "  ------------------------------------------ ", 0ah, 0dh, 0
	   2D 2D 2D 2D 2D
	   2D 2D 2D 2D 2D
	   2D 2D 2D 2D 2D
	   2D 2D 2D 2D 2D
	   2D 2D 2D 2D 2D
	   2D 2D 2D 2D 2D
	   2D 2D 2D 2D 2D
	   2D 2D 2D 2D 20
	   0A 0D 00
 000028C8 20 4E 65 77 20	confirm  BYTE " New Password is Set. ", 0ah, 0dh, 0
	   50 61 73 73 77
	   6F 72 64 20 69
	   73 20 53 65 74
	   2E 20 0A 0D 00
 000028E1 20 59 6F 75 72	reMsg    BYTE " Your Order has been Canceled... ", 0ah, 0dh, 0    ; Reset Bill Message...
	   20 4F 72 64 65
	   72 20 68 61 73
	   20 62 65 65 6E
	   20 43 61 6E 63
	   65 6C 65 64 2E
	   2E 2E 20 0A 0D
	   00
 00002905 20 45 6E 74 65	dishes   BYTE " Enter the Quantity:  ", 0
	   72 20 74 68 65
	   20 51 75 61 6E
	   74 69 74 79 3A
	   20 20 00
 0000291C 20 50 6C 65 61	dealItem BYTE " Please Select your FREE item... ", 0ah, 0dh, 0
	   73 65 20 53 65
	   6C 65 63 74 20
	   79 6F 75 72 20
	   46 52 45 45 20
	   69 74 65 6D 2E
	   2E 2E 20 0A 0D
	   00
 00002940 20 45 72 72 6F	caption  BYTE " Error ", 0
	   72 20 00
 00002948 20 50 6C 65 61	errMsg   BYTE " Please follow instructions correctly... ", 0
	   73 65 20 66 6F
	   6C 6C 6F 77 20
	   69 6E 73 74 72
	   75 63 74 69 6F
	   6E 73 20 63 6F
	   72 72 65 63 74
	   6C 79 2E 2E 2E
	   20 00
 00002972 20 20 20 20 7C	billMsg  BYTE "    |Gross Bill:   Rs ", 0
	   47 72 6F 73 73
	   20 42 69 6C 6C
	   3A 20 20 20 52
	   73 20 00
 00002989 20 20 20 20 7C	totalDis BYTE "    |5% Discount on Bill more than Rs 1999:  RS ", 0
	   35 25 20 44 69
	   73 63 6F 75 6E
	   74 20 6F 6E 20
	   42 69 6C 6C 20
	   6D 6F 72 65 20
	   74 68 61 6E 20
	   52 73 20 31 39
	   39 39 3A 20 20
	   52 53 20 00
 000029BA 20 20 20 20 7C	paybill  BYTE "    |Bill After Discount:  Rs ", 0
	   42 69 6C 6C 20
	   41 66 74 65 72
	   20 44 69 73 63
	   6F 75 6E 74 3A
	   20 20 52 73 20
	   00
 000029D9 20 20 20 20 7E	exitMsg  BYTE "    ~~~~~~~~~~~~~~~~~~~~~~~~~ ", 0ah, 0dh
	   7E 7E 7E 7E 7E
	   7E 7E 7E 7E 7E
	   7E 7E 7E 7E 7E
	   7E 7E 7E 7E 7E
	   7E 7E 7E 7E 20
	   0A 0D
 000029F9  20 20 20 7C 47	         BYTE "   |Glad to have you Here... |", 0ah, 0dh
	   6C 61 64 20 74
	   6F 20 68 61 76
	   65 20 79 6F 75
	   20 48 65 72 65
	   2E 2E 2E 20 7C
	   0A 0D
 00002A19  20 20 20 20 7E			 BYTE "    ~~~~~~~~~~~~~~~~~~~~~~~~~ ", 0ah, 0dh, 0
	   7E 7E 7E 7E 7E
	   7E 7E 7E 7E 7E
	   7E 7E 7E 7E 7E
	   7E 7E 7E 7E 7E
	   7E 7E 7E 7E 20
	   0A 0D 00

 00002A3A 20 59 6F 75 72	dealAdded BYTE " Your Free item has been Added in the order Successful... ", 0ah, 0dh, 0
	   20 46 72 65 65
	   20 69 74 65 6D
	   20 68 61 73 20
	   62 65 65 6E 20
	   41 64 64 65 64
	   20 69 6E 20 74
	   68 65 20 6F 72
	   64 65 72 20 53
	   75 63 63 65 73
	   73 66 75 6C 2E
	   2E 2E 20 0A 0D
	   00
 00002A77 20 57 6F 75 6C	continueOrder BYTE " Would you like to order Something More... ", 0ah, 0dh, 0
	   64 20 79 6F 75
	   20 6C 69 6B 65
	   20 74 6F 20 6F
	   72 64 65 72 20
	   53 6F 6D 65 74
	   68 69 6E 67 20
	   4D 6F 72 65 2E
	   2E 2E 20 0A 0D
	   00
 00002AA5 20 59 6F 75 20	dealCancel BYTE " You have canceled the deal... ", 0ah, 0dh, 0
	   68 61 76 65 20
	   63 61 6E 63 65
	   6C 65 64 20 74
	   68 65 20 64 65
	   61 6C 2E 2E 2E
	   20 0A 0D 00
 00002AC7 20 53 61 6C 65	nameSale BYTE " Sale : ", 0
	   20 3A 20 00
 00002AD0 0A 0D			newLine BYTE 0ah, 0dh

 00002AD2 0000000A		divideIt DWORD 10
 00002AD6  0000000B [		convertedTobyte BYTE 11 DUP(0)
	    00
	   ]
 00002AE1 00000000		digitCount DWORD 0
 00002AE5 00000000		remainder DWORD 0
 00002AE9  0000000B [		buff        db 11 dup(?) 
	    00
	   ]

 00000000			.CODE
				inputPass        PROTO, passString :PTR BYTE					  ; To print Oriental Menu on deals
				dealOrientalMenu PROTO, noOfDishes :DWORD						  ; To print Oriental Menu on deals
				dealChineseMenu  PROTO, noOfDishes :DWORD						  ; To print Chinese Menu on deals
				dealFastFoodMenu PROTO, noOfDishes :DWORD						  ; To print Fast Food Menu on deals
				setEcx2          PROTO, dealQuan1  :DWORD					      ; To set the value of ecx
				setEcx3          PROTO, dealQuan2  :DWORD						  ; To set the value of ecx
				dealDrinks1_5    PROTO, noOfDrinks:DWORD						  ; To 1.5 liters Drink Menu on deals
				NumbToStr		 PROTO, x:DWORD, buffer:DWORD


 00000000			main PROC
 00000000  B8 00000003		     mov eax, cyan
 00000005  E8 00000000 E		 call setTextColor

 0000000A  E8 00000000 E	     call crlf

 0000000F  BA 00001435 R		 mov edx, OFFSET welcome                                      ; Printing Welcome...
 00000014  E8 00000000 E		 call writeString

 00000019			     op:
 00000019  E8 00000000 E		    call crlf

 0000001E  BA 0000147B R		    mov edx, OFFSET id                                        ; Printing Id...
 00000023  E8 00000000 E			call writeString

 00000028  E8 00000000 E			call crlf
 0000002D  E8 00000000 E			call readInt
 00000032  E8 00000000 E			call clrscr

 00000037  83 F8 01				cmp eax, 1
 0000003A  74 11				je ad

 0000003C  83 F8 02				cmp eax, 2
 0000003F  74 13				je cu

 00000041  83 F8 03				cmp eax, 3
 00000044  74 15				je  _exit

 00000046  E8 00000C0F				call error                                                ; calling error Proc...
 0000004B  EB CC				jmp  op

 0000004D					ad:                                                       ; Admin Tag...
 0000004D  E8 0000001A				   call admin
 00000052  EB C5				   jmp op

 00000054					cu:
 00000054  E8 000003C0				   call customer
 00000059  EB BE				   jmp op

 0000005B				 _exit:
 0000005B  BA 000029D9 R			   mov edx, OFFSET exitMsg                                ; Printing Exit Note/Msg...
 00000060  E8 00000000 E		       call writeString

					       exit
 00000065  6A 00	   *	    push   +000000000h
 00000067  E8 00000000 E   *	    call   ExitProcess
 0000006C			main ENDP

				;-------------------------------------------------------------------
				;| For admin only...                                                |
				;| Uses: It deals with the admin and print whole file...            |
				;| Note: It only read bill in file...                               |
				;-------------------------------------------------------------------

 0000006C			admin PROC
 0000006C  60			       PUSHAD
 0000006D  9C				   PUSHFD

 0000006E  E8 00000000 E		   call crlf

 00000073  E8 000001A9			   call readPasswordFile                                      ; To read Password from file...

 00000078  83 3D 00000074 R		   cmp bool, 0
	   00
 0000007F  0F 84 0000010B		   je _exit                               ; Bool will be 0 if something was wrong in readPasswordFile...
					   
					   INVOKE inputPass, ADDR passWord                            ; Take input from user...
 00000085  68 000027D8 R   *	    push   OFFSET passWord
 0000008A  E8 0000016B	   *	    call   inputPass

 0000008F  E8 00000347			   call check                                                 ; Check both strings are equal...

 00000094  83 3D 00000074 R		   cmp bool, 0                                                ; Check stores result in bool...
	   00
 0000009B  0F 84 000000CC		   je wrong

 000000A1				   ok:
 000000A1  E8 00000000 E			  call crlf
 000000A6  BA 000014C3 R		      mov edx, OFFSET choice
 000000AB  E8 00000000 E			  call writeString

 000000B0  E8 00000000 E			  call crlf
 000000B5  E8 00000000 E			  call readInt

 000000BA  83 F8 01				  cmp eax, 1
 000000BD  74 15				  je  pb
 000000BF  83 F8 02			   	  cmp eax, 2
 000000C2  74 3A				  je  rp
 000000C4  83 F8 03				  cmp eax, 3
 000000C7  0F 84 000000C3			  je  _exit

 000000CD  E8 00000B88				  call error                                              ; calling error Proc...
 000000D2  EB CD				  jmp ok

 000000D4					  pb:                                                     ; Print Bill Tag...
 000000D4  E8 000000BA					 call readSalesFile                                   ; To read Sales from file...
 000000D9  E8 00000000 E				 call crlf

 000000DE  BA 000000AC R				 mov edx, OFFSET saleFile
 000000E3  E8 00000000 E				 call writeString                                     ; Printing Sales...

 000000E8  E8 00000000 E				 call crlf
 000000ED  E8 00000000 E				 call crlf
 000000F2  E8 00000000 E				 call waitMsg
 000000F7  E8 00000000 E				 call crlf

 000000FC  EB A3					 jmp ok
							 
 000000FE					  rp:                                                     ; Reset Password Tag...
 000000FE  E8 00000000 E			     call crlf

						     INVOKE inputPass, ADDR passWord                      ; Asking for old Password again...               
 00000103  68 000027D8 R   *	    push   OFFSET passWord
 00000108  E8 000000ED	   *	    call   inputPass

 0000010D  E8 000002C9				     call check                                           ; Rechecking Pass before Changing...

 00000112  83 3D 00000074 R			     cmp bool, 0
	   00
 00000119  74 2A				     je wrongReset

				             INVOKE inputPass, ADDR newPass                       ; Taking new Password again...
 0000011B  68 0000280B R   *	    push   OFFSET newPass
 00000120  E8 000000D5	   *	    call   inputPass

 00000125  A1 00000078 R				 mov eax, byteRead
 0000012A  83 F8 0F					 cmp eax, PASSWORD_SIZE                               ; To check our limit...
 0000012D  7F 16					 jg wrongReset

 0000012F  E8 0000015A					 call writePassword

 00000134  E8 00000000 E				 call crlf
 00000139  BA 000028C8 R				 mov edx, OFFSET confirm
 0000013E  E8 00000000 E			     call writeString

 00000143  EB 4B					 jmp _exit

 00000145			 wrongReset:
 00000145  B8 00000004		            mov eax, red
 0000014A  E8 00000000 E				call setTextColor
				            
 0000014F  E8 00000000 E				call crlf
 00000154  BA 0000283A R	            mov edx, OFFSET wrongPas                              ; Wrong Password Message...
 00000159  E8 00000000 E		        call writeString
				            
 0000015E  B8 00000003					mov eax, cyan
 00000163  E8 00000000 E			    call setTextColor

 00000168  E9 FFFFFF34					jmp ok

 0000016D			 wrong:                                                           ; Wrong Password block...
 0000016D  B8 00000004		       mov eax, red
 00000172  E8 00000000 E		   call setTextColor
					   
 00000177  E8 00000000 E		   call crlf
 0000017C  BA 0000283A R	       mov edx, OFFSET wrongPas                                   ; Wrong Password Message...
 00000181  E8 00000000 E		   call writeString

 00000186  B8 00000003			   mov eax, cyan
 0000018B  E8 00000000 E		   call setTextColor

 00000190			 _exit:
 00000190  9D				   POPFD
 00000191  61				   POPAD

 00000192  C3				   RET
 00000193			admin ENDP

				;-------------------------------------------------------------------
				;| Read sales from Sales File...                                    |
				;| Uses: saleFile string to store sales...                          |
				;| booL = 1 (operation succeeded) && bool = 0 (operation failed)    |
				;-------------------------------------------------------------------

 00000193			readSalesFile PROC
 00000193  60					       PUSHAD
 00000194  9C					       PUSHFD

						       INVOKE CreateFile,
				                      ADDR saleFileName,
				                      GENERIC_READ,
				                      DO_NOT_SHARE,
				                      NULL,
				                      OPEN_EXISTING,
				                      FILE_ATTRIBUTE_NORMAL,
				                      0
 00000195  6A 00	   *	    push   +000000000h
 00000197  68 00000080	   *	    push   +000000080h
 0000019C  6A 03	   *	    push   +000000003h
 0000019E  6A 00	   *	    push   +000000000h
 000001A0  6A 00	   *	    push   +000000000h
 000001A2  68 80000000	   *	    push   +080000000h
 000001A7  68 000027CE R   *	    push   OFFSET saleFileName
 000001AC  E8 00000000 E   *	    call   CreateFileA

 000001B1  83 F8 FF				       cmp eax, INVALID_HANDLE_VALUE                      ; Checking if handle is valid...
 000001B4  74 32				       je err

 000001B6  A3 0000007C R			       mov fHandle, eax                                   ; Just for safety storing Handle...      

 000001BB  BA 000000AC R		           mov edx, OFFSET saleFile                           ; Storage string...
 000001C0  B9 00001388			           mov ecx, BUFFER_SIZE                               ; Max buffer....
 000001C5  E8 00000000 E		           call ReadFromFile

 000001CA  72 1C			           jc err											  ; If file is not Read Carry will be set...

						       INVOKE CloseHandle, fHandle                        ; Calling CloseHandle function...
 000001CC  FF 35 0000007C R *	    push   fHandle
 000001D2  E8 00000000 E   *	    call   CloseHandle
				              
 000001D7  83 F8 00				       cmp eax, 0                                         ; Non-Zero eax means Close File...
 000001DA  74 0C		               je err

 000001DC  C7 05 00000074 R			       mov bool, 1                                        ; If everything is OK.
	   00000001
 000001E6  EB 0F				       jmp _exit
				 
 000001E8					       err:                                               ; File Opening Error block... 
 000001E8  E8 00000000 E		               call WriteWindowsMsg
 000001ED  C7 05 00000074 R				       mov bool, 0                                    ; If does not open
	   00000000

 000001F7				     _exit:
 000001F7  9D					       POPFD
 000001F8  61				           POPAD

 000001F9  C3					       RET
 000001FA			readSalesFile ENDP

				;-------------------------------------------------------------------
				;| Read password from User...                                       |
				;| Uses: passFile string to Password...                             |
				;-------------------------------------------------------------------

 000001FA			inputPass PROC passString :PTR BYTE	
 000001FA  55		   *	    push   ebp
 000001FB  8B EC	   *	    mov    ebp, esp
 000001FD  60					   PUSHAD
 000001FE  9C					   PUSHFD

 000001FF  8B 55 08				   mov edx, passString 
 00000202  E8 00000000 E		       call writeString

 00000207  BA 0000009B R		       mov edx, OFFSET userPass                               ; Point to the Destination...
 0000020C  B9 00000011		           mov ecx, INPUT_SIZE                                    ; Specify max characters...
 00000211  E8 00000000 E		       call readString                                        ; Take input from user...

 00000216  A3 00000078 R	           mov byteRead, eax                                      ; Bytes user write...

 0000021B				 _exit:
 0000021B  9D					   POPFD
 0000021C  61				       POPAD

						   RET
 0000021D  C9		   *	    leave  
 0000021E  C2 0004	   *	    ret    00004h
 00000221			inputPass ENDP

				;-------------------------------------------------------------------
				;| Read password from Password File...                              |
				;| Uses: passFile string to store password...                       |
				;| booL = 1 (operation succeeded) && bool = 0 (operation failed)    |
				;-------------------------------------------------------------------

 00000221			readPasswordFile PROC
 00000221  60						      PUSHAD
 00000222  9C						      PUSHFD

							      INVOKE CreateFile,
				                         ADDR passFileName,
				                         GENERIC_READ,
				                         DO_NOT_SHARE,
				                         NULL,
				                         OPEN_EXISTING,
				                         FILE_ATTRIBUTE_NORMAL,
				                         0
 00000223  6A 00	   *	    push   +000000000h
 00000225  68 00000080	   *	    push   +000000080h
 0000022A  6A 03	   *	    push   +000000003h
 0000022C  6A 00	   *	    push   +000000000h
 0000022E  6A 00	   *	    push   +000000000h
 00000230  68 80000000	   *	    push   +080000000h
 00000235  68 000027C1 R   *	    push   OFFSET passFileName
 0000023A  E8 00000000 E   *	    call   CreateFileA

 0000023F  83 F8 FF					      cmp eax, INVALID_HANDLE_VALUE                   ; Checking if handle is valid...
 00000242  74 38					      je err

 00000244  A3 0000007C R				      mov fHandle, eax                                ; Just for safety...      

 00000249  BA 0000008C R		              mov edx, OFFSET passFile                        ; Storage string...
 0000024E  B9 0000000F			              mov ecx, PASSWORD_SIZE                          ; Max buffer....
 00000253  E8 00000000 E		              call ReadFromFile

 00000258  72 22			              jc err                                  ; If file is not Read Carry will be set...

 0000025A  89 0D 00000078 R				      mov byteRead, ecx                               ; No of bytes read from file...
							  
							      INVOKE CloseHandle, fHandle                     ; Calling CloseHandle function...
 00000260  FF 35 0000007C R *	    push   fHandle
 00000266  E8 00000000 E   *	    call   CloseHandle
				              
 0000026B  83 F8 00					      cmp eax, 0                                      ; Non-Zero eax means Close File...
 0000026E  74 0C		                  je err

 00000270  C7 05 00000074 R				      mov bool, 1                                     ; If everything is OK.
	   00000001
 0000027A  EB 0F					      jmp _exit
				 
 0000027C						      err:                                            ; File Opening Error block... 
 0000027C  E8 00000000 E		                  call WriteWindowsMsg
 00000281  C7 05 00000074 R					      mov bool, 0                                 ; if does not open
	   00000000

 0000028B				        _exit:
 0000028B  9D					          POPFD
 0000028C  61				              POPAD

 0000028D  C3						      RET
 0000028E			readPasswordFile ENDP

				;-------------------------------------------------------------------
				;| Read password from Password File...                              |
				;| Uses: passFile string to store password...                       |
				;| booL = 1 (operation succeeded) && bool = 0 (operation failed)    |
				;-------------------------------------------------------------------

 0000028E			writePassword PROC
 0000028E  60						   PUSHAD
 0000028F  9C						   PUSHFD

							   INVOKE CreateFile,
				                      ADDR passFileName,
				                      GENERIC_WRITE,
				                      DO_NOT_SHARE,
				                      NULL,
				                      OPEN_EXISTING,
				                      FILE_ATTRIBUTE_NORMAL,
				                      0
 00000290  6A 00	   *	    push   +000000000h
 00000292  68 00000080	   *	    push   +000000080h
 00000297  6A 03	   *	    push   +000000003h
 00000299  6A 00	   *	    push   +000000000h
 0000029B  6A 00	   *	    push   +000000000h
 0000029D  68 40000000	   *	    push   +040000000h
 000002A2  68 000027C1 R   *	    push   OFFSET passFileName
 000002A7  E8 00000000 E   *	    call   CreateFileA

 000002AC  83 F8 FF		               cmp eax, INVALID_HANDLE_VALUE                      ; Checking if handle is valid...
 000002AF  74 35					   je err

 000002B1  A3 0000007C R	               mov fHandle, eax                                   ; Copy handle to variable...

							   INVOKE WriteFile,
				                      fHandle,
				                      ADDR   userPass,
				                      SIZEOF userPass,
				                      ADDR   bytWrite,
				                      0
 000002B6  6A 00	   *	    push   +000000000h
 000002B8  68 00000088 R   *	    push   OFFSET bytWrite
 000002BD  6A 11	   *	    push   +000000011h
 000002BF  68 0000009B R   *	    push   OFFSET userPass
 000002C4  FF 35 0000007C R *	    push   fHandle
 000002CA  E8 00000000 E   *	    call   WriteFile

				               INVOKE CloseHandle, fHandle
 000002CF  FF 35 0000007C R *	    push   fHandle
 000002D5  E8 00000000 E   *	    call   CloseHandle

 000002DA  C7 05 00000074 R				   mov bool, 1                                        ; If everything is OK.
	   00000001
 000002E4  EB 0F					   jmp _exit
				 
 000002E6						   err:                                               ; File Opening Error block... 
 000002E6  E8 00000000 E		               call WriteWindowsMsg
 000002EB  C7 05 00000074 R					   mov bool, 0                                    ; if does not open
	   00000000

 000002F5				     _exit:
 000002F5  9D					       POPFD
 000002F6  61				           POPAD

 000002F7  C3						   RET
 000002F8			writePassword ENDP

				;-------------------------------------------------------------------
				;| Read Sales to Sales File...                                      |
				;| Uses: passFile string to store password...                       |
				;| booL = 1 (operation succeeded) && bool = 0 (operation failed)    |
				;-------------------------------------------------------------------

 000002F8			writeSales PROC
 000002F8  60				PUSHAD
 000002F9  9C				PUSHFD
							
						INVOKE CreateFile,
							ADDR saleFileName,
							GENERIC_WRITE,
							DO_NOT_SHARE,
							NULL,
							OPEN_EXISTING,
							FILE_ATTRIBUTE_NORMAL,
							0
 000002FA  6A 00	   *	    push   +000000000h
 000002FC  68 00000080	   *	    push   +000000080h
 00000301  6A 03	   *	    push   +000000003h
 00000303  6A 00	   *	    push   +000000000h
 00000305  6A 00	   *	    push   +000000000h
 00000307  68 40000000	   *	    push   +040000000h
 0000030C  68 000027CE R   *	    push   OFFSET saleFileName
 00000311  E8 00000000 E   *	    call   CreateFileA
						
 00000316  83 F8 FF				 cmp eax, INVALID_HANDLE_VALUE                      ; Checking if handle is valid...
 00000319  0F 84 00000083			 je err

 0000031F  A3 0000007C R			mov fHandle,eax
						INVOKE SetFilePointer,
							fHandle,
							0,
							0,
							FILE_END
 00000324  6A 02	   *	    push   +000000002h
 00000326  6A 00	   *	    push   +000000000h
 00000328  6A 00	   *	    push   +000000000h
 0000032A  FF 35 0000007C R *	    push   fHandle
 00000330  E8 00000000 E   *	    call   SetFilePointer
						
 00000335  83 F8 FF				cmp eax, INVALID_HANDLE_VALUE                   ; Checking if handle is valid...
 00000338  74 68				je err

						INVOKE WriteFile,
							fHandle,
							ADDR nameSale,
							SIZEOF nameSale,
							ADDR bytWrite,
							0
 0000033A  6A 00	   *	    push   +000000000h
 0000033C  68 00000088 R   *	    push   OFFSET bytWrite
 00000341  6A 09	   *	    push   +000000009h
 00000343  68 00002AC7 R   *	    push   OFFSET nameSale
 00000348  FF 35 0000007C R *	    push   fHandle
 0000034E  E8 00000000 E   *	    call   WriteFile
						

						invoke NumbToStr,bill, ADDR convertedTobyte
 00000353  68 00002AD6 R   *	    push   OFFSET convertedTobyte
 00000358  FF 35 00000070 R *	    push   bill
 0000035E  E8 00000051	   *	    call   NumbToStr
						
						;mov esi,eax
						;mov edi, offset convertedTobyte
						;MOVSB

						INVOKE WriteFile,
							fHandle,
							ADDR convertedTobyte,
							SIZEOF convertedTobyte,
							ADDR bytWrite,
							0
 00000363  6A 00	   *	    push   +000000000h
 00000365  68 00000088 R   *	    push   OFFSET bytWrite
 0000036A  6A 0B	   *	    push   +00000000Bh
 0000036C  68 00002AD6 R   *	    push   OFFSET convertedTobyte
 00000371  FF 35 0000007C R *	    push   fHandle
 00000377  E8 00000000 E   *	    call   WriteFile

						INVOKE WriteFile,
							fHandle,
							ADDR newLine,
							SIZEOF newLine,
							ADDR bytWrite,
							0
 0000037C  6A 00	   *	    push   +000000000h
 0000037E  68 00000088 R   *	    push   OFFSET bytWrite
 00000383  6A 02	   *	    push   +000000002h
 00000385  68 00002AD0 R   *	    push   OFFSET newLine
 0000038A  FF 35 0000007C R *	    push   fHandle
 00000390  E8 00000000 E   *	    call   WriteFile


						INVOKE CloseHandle, fHandle                               ; if does not open
 00000395  FF 35 0000007C R *	    push   fHandle
 0000039B  E8 00000000 E   *	    call   CloseHandle
 000003A0  EB 0F				jmp _exit
					 
 000003A2				 err:                                               ; File Opening Error block... 
 000003A2  E8 00000000 E		        call WriteWindowsMsg
 000003A7  C7 05 00000074 R				mov bool, 0                                    ; if does not open
	   00000000

 000003B1				     _exit:
 000003B1  9D							POPFD
 000003B2  61							POPAD

 000003B3  C3				RET
					
 000003B4			writeSales ENDP


				    ;invoke  NumbToStr,123,ADDR buff

				    ;invoke  StdOut,eax

				  

 000003B4			NumbToStr PROC uses ebx x:DWORD,buffer:DWORD

 000003B4  55		   *	    push   ebp
 000003B5  8B EC	   *	    mov    ebp, esp
 000003B7  53		   *	    push   ebx
 000003B8  8B 4D 0C		    mov     ecx,buffer
 000003BB  8B 45 08		    mov     eax,x
 000003BE  BB 0000000A		    mov     ebx,10
 000003C3  03 CB		    add     ecx,ebx             ; ecx = buffer + max size of string
 000003C5			@@:
 000003C5  33 D2		    xor     edx,edx
 000003C7  F7 F3		    div     ebx
 000003C9  83 C2 30		    add     edx,48              ; convert the digit to ASCII
 000003CC  88 11		    mov     BYTE PTR [ecx],dl   ; store the character in the buffer
 000003CE  49			    dec     ecx                 ; decrement ecx pointing the buffer
 000003CF  85 C0		    test    eax,eax             ; check if the quotient is 0
 000003D1  75 F2		    jnz     @b

 000003D3  41			    inc     ecx
 000003D4  8B C1		    mov     eax,ecx             ; eax points the string in the buffer
				    ret
 000003D6  5B		   *	    pop    ebx
 000003D7  C9		   *	    leave  
 000003D8  C2 0008	   *	    ret    00008h

 000003DB			NumbToStr ENDP

				;toByte PROC 
					;PUSHAD
					;PUSHFD
						;mov digitCount,0
						;mov eax,0
						;mov eax,bill
						;mov mockBill, eax
						;call writeint
						;call crlf
						;
				;
						;mov edx, offset convertedTobyte
						;call writestring
						;
						;L1:
							;cmp eax,0
							;je _out
				;
							;call crlf
							;mov edx,0
							;mov eax, mockbill
							;call writeint
							;call crlf
							;div divideit
							;mov mockbill,eax
							;call writeint
				;
							;add edx, 30h
							;mov remainder, edx
							;
							;;process remainder to string
							;mov edx , offset convertedTobyte + sizeof convertedTobyte-1
							;mov ebx, 0
							;mov ebx, remainder
							;call writestring
				;
							;mov eax, remainder 
							;call crlf
							;call writeint
							;call crlf
				;
							;mov eax, mockBill
							;cmp eax,0
							;je _out
						;
							;loop L1
					;_out:	
				;
					;POPFD
					;POPAD
				;
					;RET
					;
				;toByte ENDP



				;-------------------------------------------------------------------
				;| Check the password...                                            |
				;| Uses: bool variable to represent result..                        |
				;| bool = 1 means True && bool = 0 means False...                   |
				;-------------------------------------------------------------------

 000003DB			check PROC
 000003DB  60			       PUSHAD
 000003DC  9C				   PUSHFD

 000003DD  A1 00000078 R		   mov eax, byteread
 000003E2  83 F8 0F			   cmp eax, PASSWORD_SIZE
 000003E5  7F 25			   jg notEqual

					                            ; lea: load effective address is like combination of move and offset...
 000003E7  8D 35 0000008C R		   lea esi, passfile                                          ; ds:si points to file password string...
 000003ED  8D 3D 0000009B R	       lea edi, userpass                                          ; ds:di points to input password string...

 000003F3			       lab:
 000003F3  8A 1F		            mov bl, [edi]                                         ; Moving to bl... 
 000003F5  66| 47					inc di                                                ; inc to get next character...
 000003F7  AC			            lodsb                                                 ; load al with next char from passFile...
				                                                                  ; note: lodsb inc si automatically...
 000003F8  3A C3		            cmp al, bl                                            ; compare characters...
 000003FA  75 10		            jne notEqual                                          ; jump out of loop if not equal...
				 
 000003FC  3C 00		            cmp al, 0                                             ; they are the same, but end of string?
 000003FE  75 F3		            jne lab                                               ; no - so go round loop again

 00000400  C7 05 00000074 R	            mov bool, 1
	   00000001
 0000040A  EB 0A			        jmp _exit                                             ; to save from executing notEqual tag...

 0000040C			       notEqual:
 0000040C  C7 05 00000074 R		            mov bool, 0
	   00000000

 00000416			 _exit:
 00000416  9D				   POPFD
 00000417  61				   POPAD

 00000418  C3				   RET
 00000419			check ENDP

				;-------------------------------------------------------------------
				;| For customers only...                                            |
				;| Uses: It deals with the customers and take order...              |
				;| Note: It only write bill in file with (False) customer name...   |
				;-------------------------------------------------------------------

 00000419			customer PROC
 00000419  60			          PUSHAD
 0000041A  9C					  PUSHFD

 0000041B				      op:                                                     ; Option Tag...  
 0000041B  E8 00000000 E			     call crlf

 00000420  BA 000015A7 R				 mov edx, OFFSET options                              ; Printing options...
 00000425  E8 00000000 E		         call writeString

 0000042A  E8 00000000 E				 call crlf
 0000042F  E8 00000000 E				 call readInt

 00000434  83 F8 01					 cmp eax, 1
 00000437  74 1B					 je  pm
 00000439  83 F8 02					 cmp eax, 2
 0000043C  74 36					 je  do
 0000043E  83 F8 03					 cmp eax, 3
 00000441  74 38					 je  cm
 00000443  83 F8 04					 cmp eax, 4
 00000446  74 3A					 je  rb
 00000448  83 F8 05					 cmp eax, 5
 0000044B  74 3C					 je  _exit

 0000044D  E8 00000808					 call error                                           ; calling error Proc...
 00000452  EB C7					 jmp  op

 00000454						 pm:                                                  ; Price Menu Tag...
 00000454  E8 00000000 E				    call crlf

 00000459  BA 000016F5 R			        mov edx, OFFSET pMenu
 0000045E  E8 00000000 E		            call writeString

 00000463  E8 00000000 E				    call crlf
 00000468  E8 00000000 E					call waitMsg                                      ; Call Wait Massage...
 0000046D  E8 00000000 E					call crlf

 00000472  EB A7						jmp  op

 00000474						 do:                                                  ; Deals and Offers Tag...
 00000474  E8 0000002C						call dealsOffers
 00000479  EB A0						jmp op

 0000047B						 cm:                                                  ; Choice Menu Tag...
 0000047B  E8 000000C9						call choiceMenu
 00000480  EB 99						jmp op

 00000482						 rb:                                                  ; Reset Bill Tag...
 00000482  E8 00000711						call resetBill
 00000487  EB 92						jmp op

 00000489			    _exit:                                                        ; Exit Tag
 00000489  E8 00000763				  call printBill
 0000048E  E8 FFFFFE65				  call WriteSales
 00000493  C7 05 00000070 R			  mov bill, 0
	   00000000
 0000049D  E8 00000000 E			  call crlf

 000004A2  9D					  POPFD
 000004A3  61					  POPAD

 000004A4  C3					  RET
 000004A5			customer ENDP

				;-------------------------------------------------------------------
				;| Print Deals and Offers with Prices for customers...              |
				;| Uses:   deals string to print...                                 |
				;| update: bill according to selected Deals and Offers..            |
				;-------------------------------------------------------------------

 000004A5			dealsOffers PROC
 000004A5  60			             PUSHAD
 000004A6  9C					     PUSHFD
						
 000004A7						 deal:
 000004A7  E8 00000000 E					 call crlf

 000004AC  BA 00001CDD R					 mov edx, OFFSET deals
 000004B1  E8 00000000 E					 call writeString 
 000004B6  E8 00000000 E					 call crlf 

 000004BB  E8 00000000 E					 call readInt

 000004C0  83 F8 01						 cmp eax,1	                                      ; Jump to deal One d1 tag
 000004C3  74 1B						 je d1

 000004C5  83 F8 02						 cmp eax,2		                                  ; Jump to deal Two d2 tag
 000004C8  74 2D						 je d2

 000004CA  83 F8 03						 cmp eax,3
 000004CD  74 3F						 je d3

 000004CF  83 F8 04						 cmp eax,4
 000004D2  74 51						 je d4

 000004D4  83 F8 05						 cmp eax, 5
 000004D7  74 63				         je  _exit

 000004D9  E8 0000077C						 call error
 000004DE  EB C7						 jmp deal

 000004E0						 d1: 
 000004E0  C7 05 00000084 R					 mov dealRep,3								       ; Deal oriental function to add exact 3 dishes
	   00000003
							     invoke dealOrientalMenu, dealRep	
 000004EA  FF 35 00000084 R *	    push   dealRep
 000004F0  E8 0000077E	   *	    call   dealOrientalMenu
								
 000004F5  EB 45						 jmp _exit
							 
 000004F7						  d2:
 000004F7  C7 05 00000084 R					 mov dealRep,2									  ; Deal Chinese function to add exact 2 dishes
	   00000002
							     invoke dealChineseMenu, dealRep	
 00000501  FF 35 00000084 R *	    push   dealRep
 00000507  E8 000009BF	   *	    call   dealChineseMenu
								 
 0000050C  EB 2E						 jmp _exit
								 	 
 0000050E						 d3:
 0000050E  C7 05 00000084 R				     mov dealRep,2									  ; Deal Fast Food function to add exact 2 dishes
	   00000002
							     invoke dealFastFoodMenu, dealRep	
 00000518  FF 35 00000084 R *	    push   dealRep
 0000051E  E8 00000B24	   *	    call   dealFastFoodMenu
								 
 00000523  EB 17						 jmp _exit
					

 00000525						 d4:
 00000525  C7 05 00000084 R					mov dealRep, 2
	   00000002
				 			    invoke dealDrinks1_5, dealRep
 0000052F  FF 35 00000084 R *	    push   dealRep
 00000535  E8 00000C89	   *	    call   dealDrinks1_5

 0000053A  EB 00						jmp _exit
							 
 0000053C						 _exit:

 0000053C  BA 00002A77 R				 mov edx, offset continueOrder
 00000541  E8 00000000 E				 call writeString
							 			 
 00000546  9D					     POPFD
 00000547  61					     POPAD
 00000548  C3						 RET

 00000549			dealsOffers ENDP

				;-------------------------------------------------------------------
				;| Print Menu with Prices for customers to order...                 |
				;| Uses:   pMenu string to print...                                 |
				;-------------------------------------------------------------------

 00000549			choiceMenu PROC
 00000549  60			             PUSHAD
 0000054A  9C					     PUSHFD

 0000054B						 op:                                                  ; Option Tag...
 0000054B  E8 00000000 E					call crlf

 00000550  BA 00002054 R			        mov edx, OFFSET cMenu
 00000555  E8 00000000 E		            call writeString

 0000055A  E8 00000000 E			        call crlf
 0000055F  E8 00000000 E			        call readInt

 00000564  83 F8 01			            cmp eax, 1
 00000567  74 20				        je  ot
 00000569  83 F8 02				        cmp eax, 2
 0000056C  74 22				        je  cn
 0000056E  83 F8 03				        cmp eax, 3
 00000571  74 24				        je  ff
 00000573  83 F8 04				        cmp eax, 4
 00000576  74 26				        je  de
 00000578  83 F8 05				        cmp eax, 5
 0000057B  74 28				        je  dr
 0000057D  83 F8 06						cmp eax, 6
 00000580  74 2A				        je  _exit

 00000582  E8 000006D3				        call error                                        ; calling error Proc...
 00000587  EB C2				        jmp  op

 00000589					        ot:                                               ; Oriental Tag...
 00000589  E8 00000021				           call OrientalMenu
 0000058E  EB BB				           jmp  op

 00000590			                cn:                                               ; Chinese Tag...
 00000590  E8 000001C0			               call ChineseMenu
 00000595  EB B4				           jmp op

 00000597			                ff:                                               ; Fast Food Tag...
 00000597  E8 00000298			               call FastFoodMenu
 0000059C  EB AD				           jmp op

 0000059E			               de:                                                ; Dessert Tag...
 0000059E  E8 00000370				          call DessertMenu
 000005A3  EB A6				          jmp op

 000005A5					       dr:                                                ; Drinks Tag...
 000005A5  E8 00000448			              call DrinksMenu
 000005AA  EB 9F				          jmp op

 000005AC				   _exit:                                                     ; Exit Tag
 000005AC  9D					     POPFD
 000005AD  61					     POPAD

 000005AE  C3				    	 RET
 000005AF			choiceMenu ENDP

				;-------------------------------------------------------------------
				;| Print Oriental Menu with Prices for customers to order...        |
				;| Updates: Bill ...                                                |
				;-------------------------------------------------------------------

 000005AF			OrientalMenu PROC
 000005AF  60						  PUSHAD
 000005B0  9C						  PUSHFD

 000005B1						  op:                                                 ; Option Tag...
 000005B1  E8 00000000 E				     call crlf

 000005B6  BA 00002113 R			         mov edx, OFFSET oriental
 000005BB  E8 00000000 E		             call writeString

 000005C0  E8 00000000 E			         call crlf
 000005C5  E8 00000000 E			         call readInt

 000005CA  83 F8 01			             cmp eax, 1
 000005CD  74 4B				         je  cq
 000005CF  83 F8 02				         cmp eax, 2
 000005D2  74 6D				         je  pu
 000005D4  83 F8 03				         cmp eax, 3
 000005D7  0F 84 0000008B			         je  cb
 000005DD  83 F8 04				         cmp eax, 4
 000005E0  0F 84 000000A9			         je  ck 
 000005E6  83 F8 05				         cmp eax, 5
 000005E9  0F 84 000000C7			         je  ct 
 000005EF  83 F8 06						 cmp eax, 6
 000005F2  0F 84 000000E5					 je  mh
 000005F8  83 F8 07						 cmp eax, 7
 000005FB  0F 84 00000103					 je  na
 00000601  83 F8 08						 cmp eax, 8
 00000604  0F 84 00000121					 je  rt
 0000060A  83 F8 09						 cmp eax, 9
 0000060D  0F 84 0000013F					 je  _exit

 00000613  E8 00000642				         call error                                       ; calling error Proc...
 00000618  EB 97				         jmp  op

 0000061A					         cq:                                              ; Chicken Quorma Tag...
 0000061A  BA 00002905 R			            mov edx, OFFSET dishes
 0000061F  E8 00000000 E		                call writeString

 00000624  E8 00000000 E					    call readInt                                  ; Taking input for quantity...

 00000629  8B 1D 00000000 R	  				    mov ebx, [oPrice]
 0000062F  F7 E3						    mul ebx                                       ; Mul quantity with price...
 00000631  03 05 00000070 R					    add eax, bill
 00000637  A3 00000070 R					    mov bill, eax

 0000063C  E9 FFFFFF70				            jmp  op

 00000641			                 pu:                                              ; Pullao Tag...
 00000641  BA 00002905 R		                mov edx, OFFSET dishes
 00000646  E8 00000000 E		                call writeString

 0000064B  E8 00000000 E					    call readInt                                  ; Taking input for quantity...

 00000650  8B 1D 00000004 R					    mov ebx, [oPrice + 4]
 00000656  F7 E3						    mul ebx                                       ; Mul quantity with price...
 00000658  03 05 00000070 R					    add eax, bill
 0000065E  A3 00000070 R					    mov bill, eax

 00000663  E9 FFFFFF49				            jmp  op

 00000668			                 cb:                                              ; Chicken Briyani Tag...
 00000668  BA 00002905 R		                mov edx, OFFSET dishes
 0000066D  E8 00000000 E		                call writeString

 00000672  E8 00000000 E					    call readInt                                  ; Taking input for quantity...

 00000677  8B 1D 00000008 R					    mov ebx, [oPrice + 8]
 0000067D  F7 E3						    mul ebx                                       ; Mul quantity with price...
 0000067F  03 05 00000070 R					    add eax, bill
 00000685  A3 00000070 R					    mov bill, eax

 0000068A  E9 FFFFFF22				            jmp  op

 0000068F			                 ck:                                              ; Chicken Karahi Tag...
 0000068F  BA 00002905 R			            mov edx, OFFSET dishes
 00000694  E8 00000000 E		                call writeString

 00000699  E8 00000000 E					    call readInt                                  ; Taking input for quantity...

 0000069E  8B 1D 0000000C R					    mov ebx, [oPrice + 12]
 000006A4  F7 E3						    mul ebx                                       ; Mul quantity with price...
 000006A6  03 05 00000070 R					    add eax, bill
 000006AC  A3 00000070 R					    mov bill, eax

 000006B1  E9 FFFFFEFB				            jmp  op

 000006B6					         ct:                                              ; Chicken Tikka Tag...
 000006B6  BA 00002905 R		                mov edx, OFFSET dishes
 000006BB  E8 00000000 E		                call writeString

 000006C0  E8 00000000 E					    call readInt                                  ; Taking input for quantity...

 000006C5  8B 1D 00000010 R					    mov ebx, [oPrice + 16]
 000006CB  F7 E3						    mul ebx                                       ; Mul quantity with price...
 000006CD  03 05 00000070 R					    add eax, bill
 000006D3  A3 00000070 R					    mov bill, eax

 000006D8  E9 FFFFFED4				            jmp  op

 000006DD						     mh:                                              ; Murgh Haleem Tag...
 000006DD  BA 00002905 R		                mov edx, OFFSET dishes
 000006E2  E8 00000000 E		                call writeString

 000006E7  E8 00000000 E					    call readInt                                  ; Taking input for quantity...

 000006EC  8B 1D 00000014 R					    mov ebx, [oPrice + 20]
 000006F2  F7 E3						    mul ebx                                       ; Mul quantity with price...
 000006F4  03 05 00000070 R					    add eax, bill
 000006FA  A3 00000070 R					    mov bill, eax

 000006FF  E9 FFFFFEAD				            jmp  op

 00000704						     na:                                              ; Naan Tag...
 00000704  BA 00002905 R		                mov edx, OFFSET dishes
 00000709  E8 00000000 E		                call writeString

 0000070E  E8 00000000 E					    call readInt                                  ; Taking input for quantity...

 00000713  8B 1D 00000018 R					    mov ebx, [oPrice + 24]
 00000719  F7 E3						    mul ebx                                       ; Mul quantity with price...
 0000071B  03 05 00000070 R					    add eax, bill
 00000721  A3 00000070 R					    mov bill, eax

 00000726  E9 FFFFFE86				            jmp  op

 0000072B						     rt:                                              ; Roti Tag...
 0000072B  BA 00002905 R		                mov edx, OFFSET dishes
 00000730  E8 00000000 E		                call writeString

 00000735  E8 00000000 E					    call readInt                                  ; Taking input for quantity...

 0000073A  8B 1D 0000001C R					    mov ebx, [oPrice + 28]
 00000740  F7 E3						    mul ebx                                       ; Mul quantity with price...
 00000742  03 05 00000070 R					    add eax, bill
 00000748  A3 00000070 R					    mov bill, eax

 0000074D  E9 FFFFFE5F				            jmp  op

 00000752				    _exit:
 00000752  9D						  POPFD
 00000753  61						  POPAD

 00000754  C3						  RET
 00000755			OrientalMenu ENDP

				;-------------------------------------------------------------------
				;| Print Chinese Menu with Prices for customers to order...         |
				;| Updates: Bill ...                                                |
				;-------------------------------------------------------------------

 00000755			ChineseMenu PROC
 00000755  60						 PUSHAD
 00000756  9C						 PUSHFD

 00000757						 op:                                                  ; Option Tag...
 00000757  E8 00000000 E				    call crlf

 0000075C  BA 000022D2 R			        mov edx, OFFSET chinese
 00000761  E8 00000000 E		            call writeString

 00000766  E8 00000000 E			        call crlf
 0000076B  E8 00000000 E			        call readInt

 00000770  83 F8 01			            cmp eax, 1
 00000773  74 23				        je  cm
 00000775  83 F8 02				        cmp eax, 2
 00000778  74 42				        je  fr
 0000077A  83 F8 03				        cmp eax, 3
 0000077D  74 64				        je  mn
 0000077F  83 F8 04				        cmp eax, 4
 00000782  0F 84 00000082			        je  sh 
 00000788  83 F8 05				        cmp eax, 5
 0000078B  0F 84 000000A0					je  _exit


 00000791  E8 000004C4				        call error                                        ; calling error Proc...
 00000796  EB BF				        jmp  op

 00000798					        cm:                                               ; Chicken Manchurian Tag...
 00000798  BA 00002905 R			           mov edx, OFFSET dishes
 0000079D  E8 00000000 E		               call writeString

 000007A2  E8 00000000 E					   call readInt                                   ; Taking input for quantity...

 000007A7  8B 1D 00000020 R					   mov ebx, [cPrice]
 000007AD  F7 E3						   mul ebx                                        ; Mul quantity with price...
 000007AF  03 05 00000070 R					   add eax, bill
 000007B5  A3 00000070 R					   mov bill, eax

 000007BA  EB 9B				           jmp  op

 000007BC			                fr:                                               ; Egg Fried Rice Tag...
 000007BC  BA 00002905 R		               mov edx, OFFSET dishes
 000007C1  E8 00000000 E		               call writeString

 000007C6  E8 00000000 E					   call readInt                                   ; Taking input for quantity...

 000007CB  8B 1D 00000024 R					   mov ebx, [cPrice + 4]
 000007D1  F7 E3						   mul ebx                                        ; Mul quantity with price...
 000007D3  03 05 00000070 R					   add eax, bill
 000007D9  A3 00000070 R					   mov bill, eax

 000007DE  E9 FFFFFF74				           jmp  op

 000007E3			                mn:                                               ; Chicken Macaroni Tag...
 000007E3  BA 00002905 R		               mov edx, OFFSET dishes
 000007E8  E8 00000000 E		               call writeString

 000007ED  E8 00000000 E					   call readInt                                   ; Taking input for quantity...

 000007F2  8B 1D 00000028 R					   mov ebx, [cPrice + 8]
 000007F8  F7 E3						   mul ebx                                        ; Mul quantity with price...
 000007FA  03 05 00000070 R					   add eax, bill
 00000800  A3 00000070 R					   mov bill, eax

 00000805  E9 FFFFFF4D				           jmp  op

 0000080A			                sh:                                               ; Chicken Shashlik Tag...
 0000080A  BA 00002905 R			           mov edx, OFFSET dishes
 0000080F  E8 00000000 E		               call writeString

 00000814  E8 00000000 E					   call readInt                                   ; Taking input for quantity...

 00000819  8B 1D 0000002C R					   mov ebx, [cPrice + 12]
 0000081F  F7 E3						   mul ebx                                        ; Mul quantity with price...
 00000821  03 05 00000070 R					   add eax, bill
 00000827  A3 00000070 R					   mov bill, eax

 0000082C  E9 FFFFFF26				           jmp  op

 00000831				   _exit:
 00000831  9D						 POPFD
 00000832  61						 POPAD

 00000833  C3						 RET
 00000834			ChineseMenu ENDP

				;-------------------------------------------------------------------
				;| Print Fast Food Menu with Prices for customers to order...       |
				;| Updates: Bill ...                                                |
				;-------------------------------------------------------------------

 00000834			FastFoodMenu PROC
 00000834  60						  PUSHAD
 00000835  9C						  PUSHFD

 00000836						  op:                                                 ; Option Tag...
 00000836  E8 00000000 E				     call crlf

 0000083B  BA 00002400 R			         mov edx, OFFSET fastFood
 00000840  E8 00000000 E		             call writeString

 00000845  E8 00000000 E			         call crlf
 0000084A  E8 00000000 E			         call readInt

 0000084F  83 F8 01			             cmp eax, 1
 00000852  74 23				         je  cp
 00000854  83 F8 02				         cmp eax, 2
 00000857  74 42				         je  zb
 00000859  83 F8 03				         cmp eax, 3
 0000085C  74 64				         je  sw
 0000085E  83 F8 04				         cmp eax, 4
 00000861  0F 84 00000082			         je  ff
 00000867  83 F8 05				         cmp eax, 5
 0000086A  0F 84 000000A0					 je  _exit

 00000870  E8 000003E5				         call error                                       ; calling error Proc...
 00000875  EB BF				         jmp  op

 00000877					         cp:                                              ; Chicken Pizza Tag...
 00000877  BA 00002905 R			            mov edx, OFFSET dishes
 0000087C  E8 00000000 E		                call writeString

 00000881  E8 00000000 E					    call readInt                                  ; Taking input for quantity...

 00000886  8B 1D 00000030 R					    mov ebx, [fPrice]
 0000088C  F7 E3						    mul ebx                                       ; Mul quantity with price...
 0000088E  03 05 00000070 R					    add eax, bill
 00000894  A3 00000070 R					    mov bill, eax

 00000899  EB 9B				            jmp  op

 0000089B			                 zb:                                              ; Zinger Burger Rice Tag...
 0000089B  BA 00002905 R		                mov edx, OFFSET dishes
 000008A0  E8 00000000 E		                call writeString

 000008A5  E8 00000000 E					    call readInt                                  ; Taking input for quantity...

 000008AA  8B 1D 00000034 R					    mov ebx, [fPrice + 4]
 000008B0  F7 E3						    mul ebx                                       ; Mul quantity with price...
 000008B2  03 05 00000070 R					    add eax, bill
 000008B8  A3 00000070 R					    mov bill, eax

 000008BD  E9 FFFFFF74				            jmp  op

 000008C2			                 sw:                                              ; Chicken Shawarma Tag...
 000008C2  BA 00002905 R		                mov edx, OFFSET dishes
 000008C7  E8 00000000 E		                call writeString

 000008CC  E8 00000000 E					    call readInt                                  ; Taking input for quantity...

 000008D1  8B 1D 00000038 R					    mov ebx, [fPrice + 8]
 000008D7  F7 E3						    mul ebx                                       ; Mul quantity with price...
 000008D9  03 05 00000070 R					    add eax, bill
 000008DF  A3 00000070 R					    mov bill, eax

 000008E4  E9 FFFFFF4D				            jmp  op
									 
 000008E9			                 ff:                                              ; French Fries Tag...
 000008E9  BA 00002905 R			            mov edx, OFFSET dishes
 000008EE  E8 00000000 E		                call writeString

 000008F3  E8 00000000 E					    call readInt                                  ; Taking input for quantity...

 000008F8  8B 1D 0000003C R					    mov ebx, [fPrice + 12]
 000008FE  F7 E3						    mul ebx                                       ; Mul quantity with price...
 00000900  03 05 00000070 R					    add eax, bill
 00000906  A3 00000070 R					    mov bill, eax

 0000090B  E9 FFFFFF26				            jmp  op

 00000910				    _exit:
 00000910  9D						  POPFD
 00000911  61						  POPAD

 00000912  C3						  RET
 00000913			FastFoodMenu ENDP

				;-------------------------------------------------------------------
				;| Print Dessert Menu with Prices for customers to order...         |
				;| Updates: Bill ...                                                |
				;-------------------------------------------------------------------

 00000913			DessertMenu PROC
 00000913  60						 PUSHAD
 00000914  9C						 PUSHFD

 00000915						 op:                                                  ; Option Tag...
 00000915  E8 00000000 E				    call crlf

 0000091A  BA 0000250D R			        mov edx, OFFSET dessert
 0000091F  E8 00000000 E		            call writeString

 00000924  E8 00000000 E			        call crlf
 00000929  E8 00000000 E			        call readInt

 0000092E  83 F8 01			            cmp eax, 1
 00000931  74 23				        je  pc
 00000933  83 F8 02				        cmp eax, 2
 00000936  74 42				        je  cc
 00000938  83 F8 03				        cmp eax, 3
 0000093B  74 64				        je  cu
 0000093D  83 F8 04				        cmp eax, 4
 00000940  0F 84 00000082			        je  ic
 00000946  83 F8 05				        cmp eax, 5
 00000949  0F 84 000000A0					je  _exit

 0000094F  E8 00000306				        call error                                        ; calling error Proc...
 00000954  EB BF				        jmp  op

 00000956					        pc:                                               ; Pineapple Cake Tag...
 00000956  BA 00002905 R			           mov edx, OFFSET dishes
 0000095B  E8 00000000 E		               call writeString

 00000960  E8 00000000 E					   call readInt                                   ; Taking input for quantity...

 00000965  8B 1D 00000040 R					   mov ebx, [dePrice]
 0000096B  F7 E3						   mul ebx                                        ; Mul quantity with price...
 0000096D  03 05 00000070 R					   add eax, bill
 00000973  A3 00000070 R					   mov bill, eax

 00000978  EB 9B				           jmp  op

 0000097A			                cc:                                               ; Chocolate Cake Tag...
 0000097A  BA 00002905 R		               mov edx, OFFSET dishes
 0000097F  E8 00000000 E		               call writeString

 00000984  E8 00000000 E					   call readInt                                   ; Taking input for quantity...

 00000989  8B 1D 00000044 R					   mov ebx, [dePrice + 4]
 0000098F  F7 E3						   mul ebx                                        ; Mul quantity with price...
 00000991  03 05 00000070 R					   add eax, bill
 00000997  A3 00000070 R					   mov bill, eax

 0000099C  E9 FFFFFF74				           jmp  op

 000009A1			                cu:                                               ; Custard Tag...
 000009A1  BA 00002905 R		               mov edx, OFFSET dishes
 000009A6  E8 00000000 E		               call writeString

 000009AB  E8 00000000 E					   call readInt                                   ; Taking input for quantity...

 000009B0  8B 1D 00000048 R					   mov ebx, [dePrice + 8]
 000009B6  F7 E3						   mul ebx                                        ; Mul quantity with price...
 000009B8  03 05 00000070 R					   add eax, bill
 000009BE  A3 00000070 R					   mov bill, eax

 000009C3  E9 FFFFFF4D				           jmp  op
									 
 000009C8			                ic:                                               ; Ice-Cream Tag...
 000009C8  BA 00002905 R			           mov edx, OFFSET dishes
 000009CD  E8 00000000 E		               call writeString

 000009D2  E8 00000000 E					   call readInt                                   ; Taking input for quantity...

 000009D7  8B 1D 0000004C R					   mov ebx, [dePrice + 12]
 000009DD  F7 E3						   mul ebx                                        ; Mul quantity with price...
 000009DF  03 05 00000070 R					   add eax, bill
 000009E5  A3 00000070 R					   mov bill, eax

 000009EA  E9 FFFFFF26				           jmp  op

 000009EF				   _exit:
 000009EF  9D						 POPFD
 000009F0  61						 POPAD

 000009F1  C3						 RET
 000009F2			DessertMenu ENDP

				;-------------------------------------------------------------------
				;| Print Drinks Menu with Prices for customers to order...          |
				;| Updates: Bill ...                                                |
				;-------------------------------------------------------------------

 000009F2			DrinksMenu PROC
 000009F2  60						PUSHAD
 000009F3  9C						PUSHFD

 000009F4						op:                                                   ; Option Tag...
 000009F4  E8 00000000 E				   call crlf

 000009F9  BA 00002614 R			       mov edx, OFFSET drinks
 000009FE  E8 00000000 E		           call writeString

 00000A03  E8 00000000 E			       call crlf
 00000A08  E8 00000000 E			       call readInt

 00000A0D  83 F8 01			           cmp eax, 1
 00000A10  74 4B				       je  cj
 00000A12  83 F8 02				       cmp eax, 2
 00000A15  74 6D				       je  sj
 00000A17  83 F8 03				       cmp eax, 3
 00000A1A  0F 84 0000008B			       je  cr
 00000A20  83 F8 04				       cmp eax, 4
 00000A23  0F 84 000000A9			       je  sr 
 00000A29  83 F8 05				       cmp eax, 5
 00000A2C  0F 84 000000C7			       je  pj
 00000A32  83 F8 06					   cmp eax, 6
 00000A35  0F 84 000000E5				   je  ma
 00000A3B  83 F8 07					   cmp eax, 7
 00000A3E  0F 84 00000103				   je  co
 00000A44  83 F8 08					   cmp eax, 8
 00000A47  0F 84 00000121				   je  te
 00000A4D  83 F8 09					   cmp eax, 9
 00000A50  0F 84 0000013F				   je  _exit

 00000A56  E8 000001FF				       call error                                         ; calling error Proc...
 00000A5B  EB 97				       jmp  op

 00000A5D					       cj:                                                ; Coca Cola Jumbo Tag...
 00000A5D  BA 00002905 R			          mov edx, OFFSET dishes
 00000A62  E8 00000000 E		              call writeString

 00000A67  E8 00000000 E					  call readInt                                    ; Taking input for quantity...

 00000A6C  8B 1D 00000050 R	  				  mov ebx, [drPrice]
 00000A72  F7 E3						  mul ebx                                         ; Mul quantity with price...
 00000A74  03 05 00000070 R					  add eax, bill
 00000A7A  A3 00000070 R					  mov bill, eax

 00000A7F  E9 FFFFFF70				          jmp  op

 00000A84			               sj:                                                ; Sprite Jumbo Tag...
 00000A84  BA 00002905 R		              mov edx, OFFSET dishes
 00000A89  E8 00000000 E		              call writeString

 00000A8E  E8 00000000 E					  call readInt                                    ; Taking input for quantity...

 00000A93  8B 1D 00000054 R					  mov ebx, [drPrice + 4]
 00000A99  F7 E3						  mul ebx                                         ; Mul quantity with price...
 00000A9B  03 05 00000070 R					  add eax, bill
 00000AA1  A3 00000070 R					  mov bill, eax

 00000AA6  E9 FFFFFF49				          jmp  op

 00000AAB			               cr:                                                ; Coca Cola Regular Tag...
 00000AAB  BA 00002905 R		              mov edx, OFFSET dishes
 00000AB0  E8 00000000 E		              call writeString

 00000AB5  E8 00000000 E					  call readInt                                    ; Taking input for quantity...

 00000ABA  8B 1D 00000058 R					  mov ebx, [drPrice + 8]
 00000AC0  F7 E3						  mul ebx                                         ; Mul quantity with price...
 00000AC2  03 05 00000070 R					  add eax, bill
 00000AC8  A3 00000070 R					  mov bill, eax

 00000ACD  E9 FFFFFF22				          jmp  op

 00000AD2			               sr:                                                ; Sprite Regular Tag...
 00000AD2  BA 00002905 R			          mov edx, OFFSET dishes
 00000AD7  E8 00000000 E		              call writeString

 00000ADC  E8 00000000 E					  call readInt                                    ; Taking input for quantity...

 00000AE1  8B 1D 0000005C R					  mov ebx, [drPrice + 12]
 00000AE7  F7 E3						  mul ebx                                         ; Mul quantity with price...
 00000AE9  03 05 00000070 R					  add eax, bill
 00000AEF  A3 00000070 R					  mov bill, eax

 00000AF4  E9 FFFFFEFB				          jmp  op

 00000AF9					       pj:                                                ; Pineapple Juice Tag...
 00000AF9  BA 00002905 R		              mov edx, OFFSET dishes
 00000AFE  E8 00000000 E		              call writeString

 00000B03  E8 00000000 E					  call readInt                                    ; Taking input for quantity...

 00000B08  8B 1D 00000060 R					  mov ebx, [drPrice + 16]
 00000B0E  F7 E3						  mul ebx                                         ; Mul quantity with price...
 00000B10  03 05 00000070 R					  add eax, bill
 00000B16  A3 00000070 R					  mov bill, eax

 00000B1B  E9 FFFFFED4				          jmp  op

 00000B20						   ma:                                                ; Mint Margarita Tag...
 00000B20  BA 00002905 R		              mov edx, OFFSET dishes
 00000B25  E8 00000000 E		              call writeString

 00000B2A  E8 00000000 E					  call readInt                                    ; Taking input for quantity...

 00000B2F  8B 1D 00000064 R					  mov ebx, [drPrice + 20]
 00000B35  F7 E3						  mul ebx                                         ; Mul quantity with price...
 00000B37  03 05 00000070 R					  add eax, bill
 00000B3D  A3 00000070 R					  mov bill, eax

 00000B42  E9 FFFFFEAD				          jmp  op

 00000B47						   co:                                                ; Coffee Tag...
 00000B47  BA 00002905 R		              mov edx, OFFSET dishes
 00000B4C  E8 00000000 E		              call writeString

 00000B51  E8 00000000 E					  call readInt                                    ; Taking input for quantity...

 00000B56  8B 1D 00000068 R					  mov ebx, [drPrice + 24]
 00000B5C  F7 E3						  mul ebx                                         ; Mul quantity with price...
 00000B5E  03 05 00000070 R					  add eax, bill
 00000B64  A3 00000070 R					  mov bill, eax

 00000B69  E9 FFFFFE86				          jmp  op

 00000B6E						   te:                                                ; Tea Tag...
 00000B6E  BA 00002905 R		              mov edx, OFFSET dishes
 00000B73  E8 00000000 E		              call writeString

 00000B78  E8 00000000 E					  call readInt                                    ; Taking input for quantity...

 00000B7D  8B 1D 0000006C R					  mov ebx, [drPrice + 28]
 00000B83  F7 E3						  mul ebx                                         ; Mul quantity with price...
 00000B85  03 05 00000070 R					  add eax, bill
 00000B8B  A3 00000070 R					  mov bill, eax

 00000B90  E9 FFFFFE5F				          jmp  op

 00000B95				  _exit:
 00000B95  9D						POPFD
 00000B96  61						POPAD

 00000B97  C3						RET
 00000B98			DrinksMenu ENDP

				;-------------------------------------------------------------------
				;| Print a message for customers...                                 |
				;| Uses:   pMenu string to print...                                 |
				;| update: Reset the bill to 0...                                   |
				;-------------------------------------------------------------------

 00000B98			resetBill PROC
 00000B98  60			           PUSHAD
 00000B99  9C					   PUSHFD

 00000B9A  E8 00000000 E			   call crlf

 00000B9F  BA 000028E1 R			   mov edx, OFFSET reMsg
 00000BA4  E8 00000000 E		       call writeString 

 00000BA9  C7 05 00000070 R			   mov bill, 0                                            ; Making bill 0...
	   00000000

 00000BB3  9D					   POPFD
 00000BB4  61					   POPAD

 00000BB5  C3				       RET
 00000BB6			resetBill ENDP

				;-------------------------------------------------------------------
				;|          |
				;| Uses: Print the bill for Customers...                            |
				;-------------------------------------------------------------------

 00000BB6			discount PROC
 00000BB6  60					  PUSHAD
 00000BB7  9C					  PUSHFD

 00000BB8  A1 00000070 R			  mov eax, bill
 00000BBD  3D 000007CF				  cmp eax, 1999
 00000BC2  7F 02				  jg disc
 00000BC4  EB 28				  jmp _exit

 00000BC6					  disc:
 00000BC6  BB 00000014					   mov ebx, 20
 00000BCB  F7 E3					   mul ebx
 00000BCD  BA 00000000					   mov edx, 0
 00000BD2  B9 00000064					   mov ecx, 100
 00000BD7  F7 F1					   div ecx
 00000BD9  A3 00000080 R				   mov mockBill, eax

 00000BDE  A1 00000070 R				   mov eax, bill
 00000BE3  2B 05 00000080 R				   sub eax, mockBill
 00000BE9  A3 00000070 R				   mov bill, eax

 00000BEE				_exit:
 00000BEE  9D					  POPFD
 00000BEF  61					  POPAD

 00000BF0  C3				      RET
 00000BF1			discount ENDP

				;-------------------------------------------------------------------
				;| Uses: Print the bill for Customers...                            |
				;-------------------------------------------------------------------

 00000BF1			printBill PROC
 00000BF1  60			           PUSHAD
 00000BF2  9C					   PUSHFD

 00000BF3  E8 00000000 E			   call crlf

 00000BF8  BA 00002972 R			   mov edx, OFFSET billMsg
 00000BFD  E8 00000000 E		       call writeString 

 00000C02  A1 00000070 R			   mov eax, bill
 00000C07  E8 00000000 E			   call writeInt                                         ; Print the original bill...

 00000C0C  E8 FFFFFFA5				   call discount

 00000C11  E8 00000000 E			   call crlf

 00000C16  BA 00002989 R			   mov edx, offset totalDis
 00000C1B  E8 00000000 E			   call writeString

 00000C20  A1 00000080 R			   mov eax, mockbill
 00000C25  E8 00000000 E			   call writeInt                                           ; Print Total Discount...

 00000C2A  E8 00000000 E			   call crlf

 00000C2F  BA 000029BA R			   mov edx, offset paybill
 00000C34  E8 00000000 E			   call writeString

 00000C39  A1 00000070 R			   mov eax, bill
 00000C3E  E8 00000000 E			   call writeInt										   ; Printing Payable Bill...

 00000C43  E8 00000000 E			   call crlf
 00000C48  E8 00000000 E			   call crlf

 00000C4D  BA 000029D9 R			   mov edx, OFFSET exitMsg                                 ; Printing Exit Note/Msg...
 00000C52  E8 00000000 E		       call writeString

 00000C57  9D					   POPFD
 00000C58  61					   POPAD


 00000C59  C3				       RET
 00000C5A			printBill ENDP

				;-------------------------------------------------------------------
				;| Shows an Error Box to customers...                               |
				;| Uses:  2 strings for an input   box...                           |
				;| Advan: It also works as a pause...                               |
				;-------------------------------------------------------------------

 00000C5A			error PROC
 00000C5A  60			       PUSHAD
 00000C5B  9C				   PUSHFD

 00000C5C  E8 00000000 E		   call crlf

 00000C61  BB 00002940 R	       mov ebx, OFFSET caption
 00000C66  BA 00002948 R		   mov edx, OFFSET errMsg
 00000C6B  E8 00000000 E		   call msgBox

 00000C70  9D				   POPFD
 00000C71  61				   POPAD

 00000C72  C3				   RET
 00000C73			error ENDP

				;-------------------------------------------------------------------
				;| Print Deal Oriental Menu with Prices for customers to order...   |
				;| Updates: Bill ...                                                |
				;-------------------------------------------------------------------

 00000C73			dealOrientalMenu PROC , noOfDishes:DWORD
 00000C73  55		   *	    push   ebp
 00000C74  8B EC	   *	    mov    ebp, esp
 00000C76  60						  PUSHAD
 00000C77  9C						  PUSHFD

 00000C78  A1 00000070 R				  mov eax, bill		
 00000C7D  A3 00000080 R				  mov mockBill, eax								      ; Stores the copy of bill

 00000C82  8B 4D 08					  mov ecx, noOfDishes

 00000C85						  op:                                                 ; Option Tag...				 
 00000C85  E8 00000000 E					 call crlf

 00000C8A  BA 00002113 R			         mov edx, OFFSET oriental
 00000C8F  E8 00000000 E		             call writeString

 00000C94  E8 00000000 E			         call crlf
 00000C99  E8 00000000 E			         call readInt

 00000C9E  83 F8 01			             cmp eax, 1
 00000CA1  74 51				         je  cq
 00000CA3  83 F8 02				         cmp eax, 2
 00000CA6  74 76				         je  pu
 00000CA8  83 F8 03				         cmp eax, 3
 00000CAB  0F 84 00000097			         je  cb
 00000CB1  83 F8 04				         cmp eax, 4
 00000CB4  0F 84 000000BB			         je  ck 
 00000CBA  83 F8 05				         cmp eax, 5
 00000CBD  0F 84 000000DF			         je  ct 
 00000CC3  83 F8 06						 cmp eax, 6
 00000CC6  0F 84 00000103					 je  mh
 00000CCC  83 F8 07						 cmp eax, 7
 00000CCF  0F 84 00000127					 je  na
 00000CD5  83 F8 08						 cmp eax, 8
 00000CD8  0F 84 0000014B					 je  rt
 00000CDE  83 F8 09						 cmp eax, 9
 00000CE1  0F 84 0000016F					 je  cancelDeal

 00000CE7  E8 FFFFFF6E				         call error                                       ; Calling error Proc...
 00000CEC  41							 inc ecx										  ; increments ecx after 1 iteration is lost in error
 00000CED					         again:
 00000CED  E2 96							LOOP op

 00000CEF  E9 0000017D						 jmp _exit

 00000CF4					         cq:                                              ; Chicken Quorma Tag...
 00000CF4  BA 00002905 R			            mov edx, OFFSET dishes
 00000CF9  E8 00000000 E		                call writeString

 00000CFE  E8 00000000 E					    call readInt                                  ; Taking input for quantity...

									invoke setEcx3, eax
 00000D03  50		   *	    push   eax
 00000D04  E8 000005B9	   *	    call   setEcx3

 00000D09  8B 1D 00000000 R	  				    mov ebx, [oPrice]
 00000D0F  F7 E3						    mul ebx                                       ; Mul quantity with price...
 00000D11  03 05 00000070 R					    add eax, bill
 00000D17  A3 00000070 R					    mov bill, eax

 00000D1C  EB CF				            jmp  again

 00000D1E			                 pu:                                              ; Pullao Tag...
 00000D1E  BA 00002905 R		                mov edx, OFFSET dishes
 00000D23  E8 00000000 E		                call writeString

 00000D28  E8 00000000 E					    call readInt                                  ; Taking input for quantity...

									invoke setEcx3, eax
 00000D2D  50		   *	    push   eax
 00000D2E  E8 0000058F	   *	    call   setEcx3

 00000D33  8B 1D 00000004 R					    mov ebx, [oPrice + 4]
 00000D39  F7 E3						    mul ebx                                       ; Mul quantity with price...
 00000D3B  03 05 00000070 R					    add eax, bill
 00000D41  A3 00000070 R					    mov bill, eax

 00000D46  EB A5				            jmp  again

 00000D48			                 cb:                                              ; Chicken Briyani Tag...
 00000D48  BA 00002905 R		                mov edx, OFFSET dishes
 00000D4D  E8 00000000 E		                call writeString

 00000D52  E8 00000000 E					    call readInt                                  ; Taking input for quantity...

									invoke setEcx3, eax
 00000D57  50		   *	    push   eax
 00000D58  E8 00000565	   *	    call   setEcx3

 00000D5D  8B 1D 00000008 R					    mov ebx, [oPrice + 8]
 00000D63  F7 E3						    mul ebx                                       ; Mul quantity with price...
 00000D65  03 05 00000070 R					    add eax, bill
 00000D6B  A3 00000070 R					    mov bill, eax

 00000D70  E9 FFFFFF78				            jmp  again

 00000D75			                 ck:                                              ; Chicken Karahi Tag...
 00000D75  BA 00002905 R			            mov edx, OFFSET dishes
 00000D7A  E8 00000000 E		                call writeString

 00000D7F  E8 00000000 E					    call readInt                                  ; Taking input for quantity...

									invoke setEcx3, eax
 00000D84  50		   *	    push   eax
 00000D85  E8 00000538	   *	    call   setEcx3

 00000D8A  8B 1D 0000000C R					    mov ebx, [oPrice + 12]
 00000D90  F7 E3						    mul ebx                                       ; Mul quantity with price...
 00000D92  03 05 00000070 R					    add eax, bill
 00000D98  A3 00000070 R					    mov bill, eax

 00000D9D  E9 FFFFFF4B				            jmp  again

 00000DA2					         ct:                                              ; Chicken Tikka Tag...
 00000DA2  BA 00002905 R		                mov edx, OFFSET dishes
 00000DA7  E8 00000000 E		                call writeString

 00000DAC  E8 00000000 E					    call readInt                                  ; Taking input for quantity...

									invoke setEcx3, eax
 00000DB1  50		   *	    push   eax
 00000DB2  E8 0000050B	   *	    call   setEcx3

 00000DB7  8B 1D 00000010 R					    mov ebx, [oPrice + 16]
 00000DBD  F7 E3						    mul ebx                                       ; Mul quantity with price...
 00000DBF  03 05 00000070 R					    add eax, bill
 00000DC5  A3 00000070 R					    mov bill, eax

 00000DCA  E9 FFFFFF1E				            jmp  again

 00000DCF						     mh:                                              ; Murgh Haleem Tag...
 00000DCF  BA 00002905 R		                mov edx, OFFSET dishes
 00000DD4  E8 00000000 E		                call writeString

 00000DD9  E8 00000000 E					    call readInt                                  ; Taking input for quantity...

									invoke setEcx3, eax
 00000DDE  50		   *	    push   eax
 00000DDF  E8 000004DE	   *	    call   setEcx3

 00000DE4  8B 1D 00000014 R					    mov ebx, [oPrice + 20]
 00000DEA  F7 E3						    mul ebx                                       ; Mul quantity with price...
 00000DEC  03 05 00000070 R					    add eax, bill
 00000DF2  A3 00000070 R					    mov bill, eax

 00000DF7  E9 FFFFFEF1				            jmp  again

 00000DFC						     na:                                              ; Naan Tag...
 00000DFC  BA 00002905 R		                mov edx, OFFSET dishes
 00000E01  E8 00000000 E		                call writeString

 00000E06  E8 00000000 E					    call readInt                                  ; Taking input for quantity...

									invoke setEcx3, eax
 00000E0B  50		   *	    push   eax
 00000E0C  E8 000004B1	   *	    call   setEcx3

 00000E11  8B 1D 00000018 R					    mov ebx, [oPrice + 24]
 00000E17  F7 E3						    mul ebx                                       ; Mul quantity with price...
 00000E19  03 05 00000070 R					    add eax, bill
 00000E1F  A3 00000070 R					    mov bill, eax

 00000E24  E9 FFFFFEC4				            jmp  again

 00000E29						     rt:                                              ; Roti Tag...
 00000E29  BA 00002905 R		                mov edx, OFFSET dishes
 00000E2E  E8 00000000 E		                call writeString

 00000E33  E8 00000000 E					    call readInt                                  ; Taking input for quantity...

									invoke setEcx3, eax
 00000E38  50		   *	    push   eax
 00000E39  E8 00000484	   *	    call   setEcx3

 00000E3E  8B 1D 0000001C R					    mov ebx, [oPrice + 28]
 00000E44  F7 E3						    mul ebx                                       ; Mul quantity with price...
 00000E46  03 05 00000070 R					    add eax, bill
 00000E4C  A3 00000070 R					    mov bill, eax

 00000E51  E9 FFFFFE97				            jmp  again

 00000E56					 cancelDeal:
 00000E56  A1 00000080 R					 mov eax, mockBill				     	          ; Canceled the order and restored the bill
 00000E5B  A3 00000070 R					 mov bill, eax
 00000E60  BA 00002AA5 R					 mov edx, offset dealCancel
 00000E65  E8 00000000 E					 call writeString
 00000E6A  E8 00000000 E					 call crlf
 00000E6F  EB 54						 jmp finalExit

 00000E71				    _exit:

 00000E71  E8 00000000 E					 call crlf										  ; Printing message to add a deal item in the order
 00000E76  BA 0000291C R					 mov edx, offset dealItem
 00000E7B  E8 00000000 E					 call writeString
 00000E80  E8 00000000 E					 call crlf

 00000E85  BA 0000250D R					 mov edx, offset dessert						  ; Printing the free desert item menu
 00000E8A  E8 00000000 E					 call writeString
 00000E8F  E8 00000000 E					 call crlf
 00000E94  E8 00000000 E					 call readInt
								 
 00000E99  83 F8 05						 cmp eax,5										  ; Error handling for free item
 00000E9C  74 B8						 je cancelDeal
 00000E9E  83 F8 05						 cmp eax,5
 00000EA1  7F 1B						 jg selectCorrect
 00000EA3  83 F8 00						 cmp eax,0
 00000EA6  7E 16						 jle selectCorrect
								 
 00000EA8  E8 00000000 E					 call crlf									      ; Printing success message
 00000EAD  BA 00002A3A R					 mov edx, offset dealAdded
 00000EB2  E8 00000000 E					 call writeString
 00000EB7  E8 00000000 E					 call crlf
 00000EBC  EB 07						 jmp finalExit

 00000EBE						selectCorrect:
 00000EBE  E8 FFFFFD97						 call error
 00000EC3  EB AC						 jmp _exit

 00000EC5					finalExit:

 00000EC5  9D						  POPFD
 00000EC6  61						  POPAD

							  RET
 00000EC7  C9		   *	    leave  
 00000EC8  C2 0004	   *	    ret    00004h
 00000ECB			dealOrientalMenu ENDP

				;-------------------------------------------------------------------
				;| Print deal Chinese Menu with Prices for customers to order...    |
				;| Updates: Bill ...                                                |
				;-------------------------------------------------------------------

 00000ECB			dealChineseMenu PROC, noOfDishes:DWORD
 00000ECB  55		   *	    push   ebp
 00000ECC  8B EC	   *	    mov    ebp, esp
 00000ECE  60						 PUSHAD
 00000ECF  9C						 PUSHFD

 00000ED0  A1 00000070 R				 mov eax, bill		
 00000ED5  A3 00000080 R				 mov mockBill, eax								      ; Stores the copy of bill

 00000EDA  8B 4D 08					 mov ecx, noOfDishes
							 
 00000EDD						 op:                                                  ; Option Tag...
 00000EDD  E8 00000000 E				    call crlf

 00000EE2  BA 000022D2 R			        mov edx, OFFSET chinese
 00000EE7  E8 00000000 E		            call writeString

 00000EEC  E8 00000000 E			        call crlf
 00000EF1  E8 00000000 E			        call readInt


 00000EF6  83 F8 01			            cmp eax, 1
 00000EF9  74 29				        je  cm
 00000EFB  83 F8 02				        cmp eax, 2
 00000EFE  74 4E				        je  fr
 00000F00  83 F8 03				        cmp eax, 3
 00000F03  74 73				        je  mn
 00000F05  83 F8 04				        cmp eax, 4
 00000F08  0F 84 00000097			        je  sh 
 00000F0E  83 F8 05				        cmp eax, 5
 00000F11  0F 84 000000BB					je  cancelDeal


 00000F17  E8 FFFFFD3E				        call error                                        ; calling error Proc...
 00000F1C  41							inc ecx											  ; increments ecx after 1 iteration is lost in error

 00000F1D							again:
 00000F1D  E2 BE							LOOP  op
 00000F1F  E9 000000C9						jmp _exit

 00000F24					        cm:                                               ; Chicken Manchurian Tag...
 00000F24  BA 00002905 R			           mov edx, OFFSET dishes
 00000F29  E8 00000000 E		               call writeString

 00000F2E  E8 00000000 E					   call readInt                                   ; Taking input for quantity...

								   invoke setEcx2, eax
 00000F33  50		   *	    push   eax
 00000F34  E8 00000371	   *	    call   setEcx2

 00000F39  8B 1D 00000020 R					   mov ebx, [cPrice]
 00000F3F  F7 E3						   mul ebx                                        ; Mul quantity with price...
 00000F41  03 05 00000070 R					   add eax, bill
 00000F47  A3 00000070 R					   mov bill, eax

 00000F4C  EB CF				           jmp  again

 00000F4E			                fr:                                               ; Egg Fried Rice Tag...
 00000F4E  BA 00002905 R		               mov edx, OFFSET dishes
 00000F53  E8 00000000 E		               call writeString

 00000F58  E8 00000000 E					   call readInt                                   ; Taking input for quantity...

								   invoke setEcx2, eax
 00000F5D  50		   *	    push   eax
 00000F5E  E8 00000347	   *	    call   setEcx2

 00000F63  8B 1D 00000024 R					   mov ebx, [cPrice + 4]
 00000F69  F7 E3						   mul ebx                                        ; Mul quantity with price...
 00000F6B  03 05 00000070 R					   add eax, bill
 00000F71  A3 00000070 R					   mov bill, eax

 00000F76  EB A5				           jmp  again

 00000F78			                mn:                                               ; Chicken Macaroni Tag...
 00000F78  BA 00002905 R		               mov edx, OFFSET dishes
 00000F7D  E8 00000000 E		               call writeString

 00000F82  E8 00000000 E					   call readInt                                   ; Taking input for quantity...

								   invoke setEcx2, eax
 00000F87  50		   *	    push   eax
 00000F88  E8 0000031D	   *	    call   setEcx2

 00000F8D  8B 1D 00000028 R					   mov ebx, [cPrice + 8]
 00000F93  F7 E3						   mul ebx                                        ; Mul quantity with price...
 00000F95  03 05 00000070 R					   add eax, bill
 00000F9B  A3 00000070 R					   mov bill, eax

 00000FA0  E9 FFFFFF78				           jmp  again

 00000FA5			                sh:                                               ; Chicken Shashlik Tag...
 00000FA5  BA 00002905 R			           mov edx, OFFSET dishes
 00000FAA  E8 00000000 E		               call writeString

 00000FAF  E8 00000000 E					   call readInt                                   ; Taking input for quantity...

								   invoke setEcx2, eax
 00000FB4  50		   *	    push   eax
 00000FB5  E8 000002F0	   *	    call   setEcx2
								   
 00000FBA  8B 1D 0000002C R					   mov ebx, [cPrice + 12]
 00000FC0  F7 E3						   mul ebx                                        ; Mul quantity with price...
 00000FC2  03 05 00000070 R					   add eax, bill
 00000FC8  A3 00000070 R					   mov bill, eax

 00000FCD  E9 FFFFFF4B				           jmp  again
					  
 00000FD2				  cancelDeal:
 00000FD2  A1 00000080 R					 mov eax, mockBill  						      ; Canceled the order and restored the bill
 00000FD7  A3 00000070 R					 mov bill, eax
 00000FDC  BA 00002AA5 R					 mov edx, offset dealCancel
 00000FE1  E8 00000000 E					 call writeString
 00000FE6  E8 00000000 E					 call crlf
 00000FEB  EB 54						 jmp finalExit
					  
 00000FED				  _exit:
 00000FED  E8 00000000 E					call crlf										  ; Printing message to add a deal item in the order
 00000FF2  BA 0000291C R					mov edx, offset dealItem
 00000FF7  E8 00000000 E					call writeString
 00000FFC  E8 00000000 E					call crlf

 00001001  BA 00002614 R					mov edx, offset drinks    						  ; Printing the free desert item menu
 00001006  E8 00000000 E					call writeString
 0000100B  E8 00000000 E					call crlf
 00001010  E8 00000000 E					call readInt
								 
 00001015  83 F8 09						cmp eax,9										  ; Error handling for free item
 00001018  74 B8						je cancelDeal
 0000101A  83 F8 09						cmp eax,9
 0000101D  7F 1B						jg selectCorrect
 0000101F  83 F8 00						cmp eax,0
 00001022  7E 16						jle selectCorrect

 00001024  E8 00000000 E					call crlf										  ; Printing success message
 00001029  BA 00002A3A R					mov edx, offset dealAdded
 0000102E  E8 00000000 E					call writeString
 00001033  E8 00000000 E					call crlf
 00001038  EB 07						jmp finalExit

						
 0000103A					selectCorrect:
 0000103A  E8 FFFFFC1B						 call error
 0000103F  EB AC						 jmp _exit
							 
 00001041					finalExit:

 00001041  9D							 POPFD
 00001042  61							 POPAD

							 RET
 00001043  C9		   *	    leave  
 00001044  C2 0004	   *	    ret    00004h
 00001047			dealChineseMenu ENDP

				;-------------------------------------------------------------------
				;| Print deal Fast Food Menu with Prices for customers to order...  |
				;| Updates: Bill ...                                                |
				;-------------------------------------------------------------------

 00001047			dealFastFoodMenu PROC, noOfDishes:DWORD
 00001047  55		   *	    push   ebp
 00001048  8B EC	   *	    mov    ebp, esp
 0000104A  60						  PUSHAD
 0000104B  9C						  PUSHFD

 0000104C  A1 00000070 R				  mov eax, bill		
 00001051  A3 00000080 R				  mov mockBill, eax								      ; Stores the copy of bill	

 00001056  8B 4D 08					  mov ecx, noOfDishes

 00001059						  op:                                                 ; Option Tag...
 00001059  E8 00000000 E				     call crlf

 0000105E  BA 00002400 R			         mov edx, OFFSET fastFood
 00001063  E8 00000000 E		             call writeString

 00001068  E8 00000000 E			         call crlf
 0000106D  E8 00000000 E			         call readInt

 00001072  83 F8 01			             cmp eax, 1
 00001075  74 29				         je  cp
 00001077  83 F8 02				         cmp eax, 2
 0000107A  74 4E				         je  zb
 0000107C  83 F8 03				         cmp eax, 3
 0000107F  74 73				         je  sw
 00001081  83 F8 04				         cmp eax, 4
 00001084  0F 84 00000097			         je  ff
 0000108A  83 F8 05				         cmp eax, 5
 0000108D  0F 84 000000BB					 je  cancelDeal

 00001093  E8 FFFFFBC2				         call error                                       ; calling error Proc...
 00001098  41							 inc ecx									      ; increments ecx after 1 iteration is lost in error

 00001099							 again:
 00001099  E2 BE						     LOOP op
 0000109B  E9 000000C9						 jmp _exit

 000010A0					         cp:                                              ; Chicken Pizza Tag...
 000010A0  BA 00002905 R			            mov edx, OFFSET dishes
 000010A5  E8 00000000 E		                call writeString

 000010AA  E8 00000000 E					    call readInt                                  ; Taking input for quantity...

									invoke setEcx2, eax
 000010AF  50		   *	    push   eax
 000010B0  E8 000001F5	   *	    call   setEcx2

 000010B5  8B 1D 00000030 R					    mov ebx, [fPrice]
 000010BB  F7 E3						    mul ebx                                       ; Mul quantity with price...
 000010BD  03 05 00000070 R					    add eax, bill
 000010C3  A3 00000070 R					    mov bill, eax

 000010C8  EB CF				            jmp  again

 000010CA			                 zb:                                              ; Zinger Burger Rice Tag...
 000010CA  BA 00002905 R		                mov edx, OFFSET dishes
 000010CF  E8 00000000 E		                call writeString

 000010D4  E8 00000000 E					    call readInt                                  ; Taking input for quantity...

									invoke setEcx2, eax
 000010D9  50		   *	    push   eax
 000010DA  E8 000001CB	   *	    call   setEcx2

 000010DF  8B 1D 00000034 R					    mov ebx, [fPrice + 4]
 000010E5  F7 E3						    mul ebx                                       ; Mul quantity with price...
 000010E7  03 05 00000070 R					    add eax, bill
 000010ED  A3 00000070 R					    mov bill, eax

 000010F2  EB A5				            jmp  again

 000010F4			                 sw:                                              ; Chicken Shawarma Tag...
 000010F4  BA 00002905 R		                mov edx, OFFSET dishes
 000010F9  E8 00000000 E		                call writeString

 000010FE  E8 00000000 E					    call readInt                                  ; Taking input for quantity...

									invoke setEcx2, eax
 00001103  50		   *	    push   eax
 00001104  E8 000001A1	   *	    call   setEcx2

 00001109  8B 1D 00000038 R					    mov ebx, [fPrice + 8]
 0000110F  F7 E3						    mul ebx                                       ; Mul quantity with price...
 00001111  03 05 00000070 R					    add eax, bill
 00001117  A3 00000070 R					    mov bill, eax

 0000111C  E9 FFFFFF78				            jmp  again
									 
 00001121			                 ff:                                              ; French Fries Tag...
 00001121  BA 00002905 R			            mov edx, OFFSET dishes
 00001126  E8 00000000 E		                call writeString

 0000112B  E8 00000000 E					    call readInt                                  ; Taking input for quantity...

									invoke setEcx2, eax
 00001130  50		   *	    push   eax
 00001131  E8 00000174	   *	    call   setEcx2

 00001136  8B 1D 0000003C R					    mov ebx, [fPrice + 12]
 0000113C  F7 E3						    mul ebx                                       ; Mul quantity with price...
 0000113E  03 05 00000070 R					    add eax, bill
 00001144  A3 00000070 R					    mov bill, eax

 00001149  E9 FFFFFF4B				            jmp  again

 0000114E					cancelDeal:
 0000114E  A1 00000080 R					   mov eax, mockBill			 				  ; Canceled the order and restored the bill
 00001153  A3 00000070 R					   mov bill, eax
 00001158  BA 00002AA5 R					   mov edx, offset dealCancel
 0000115D  E8 00000000 E					   call writeString
 00001162  E8 00000000 E					   call crlf
 00001167  EB 54						   jmp finalExit

 00001169				    _exit:
 00001169  E8 00000000 E					   call crlf									  ; Printing message to add a deal item in the order
 0000116E  BA 0000291C R					   mov edx, offset dealItem
 00001173  E8 00000000 E					   call writeString
 00001178  E8 00000000 E					   call crlf
					
 0000117D  BA 00001F16 R					   mov edx, offset regDrink    					  ; Printing the free desert item menu
 00001182  E8 00000000 E					   call writeString
 00001187  E8 00000000 E					   call crlf
 0000118C  E8 00000000 E					   call readInt
								   
 00001191  83 F8 05						   cmp eax,5						     	      ; Error handling for free item
 00001194  74 B8					       je cancelDeal
 00001196  83 F8 05						   cmp eax,5
 00001199  7F 1B						   jg selectCorrect
 0000119B  83 F8 00						   cmp eax,0
 0000119E  7E 16						   jle selectCorrect

 000011A0  E8 00000000 E					   call crlf									  ; Printing success message
 000011A5  BA 00002A3A R					   mov edx, offset dealAdded
 000011AA  E8 00000000 E					   call writeString
 000011AF  E8 00000000 E					   call crlf
 000011B4  EB 07						   jmp finalExit
						
 000011B6					selectCorrect:
 000011B6  E8 FFFFFA9F						 call error
 000011BB  EB AC						 jmp _exit

 000011BD					finalExit:

 000011BD  9D						  POPFD
 000011BE  61						  POPAD

							  RET
 000011BF  C9		   *	    leave  
 000011C0  C2 0004	   *	    ret    00004h
 000011C3			dealFastFoodMenu ENDP


 000011C3			dealDrinks1_5 PROC , noOfDrinks:DWORD
					
 000011C3  55		   *	    push   ebp
 000011C4  8B EC	   *	    mov    ebp, esp
 000011C6  60				PUSHAD
 000011C7  9C				PUSHFD
						
 000011C8  A1 00000070 R			mov eax, bill		
 000011CD  A3 00000080 R			mov mockBill, eax								          ; Stores the copy of bill	

 000011D2  8B 4D 08				mov ecx, noOfDrinks

 000011D5					op:
 000011D5  E8 00000000 E				call crlf
 000011DA  BA 00001FDD R				mov edx, offset drinks1_5
 000011DF  E8 00000000 E				call writeString
 000011E4  E8 00000000 E				call crlf

 000011E9  E8 00000000 E				call readInt

 000011EE  83 F8 01					cmp eax, 1
 000011F1  74 14					je drink

 000011F3  83 F8 02					cmp eax, 2
 000011F6  74 0F					je drink

 000011F8  83 F8 03					cmp eax, 3
 000011FB  74 38					je cancelDeal

 000011FD  E8 FFFFFA58					call error
 00001202  41						inc ecx											      ; Inc ecx after 1 loop is lost in error

 00001203						again:
 00001203  E2 D0						LOOP op

 00001205  EB 49					jmp _exit

 00001207						drink: 
 00001207  BA 00002905 R					mov edx, OFFSET dishes
 0000120C  E8 00000000 E		            call writeString

 00001211  E8 00000000 E					call readInt

								invoke setEcx2, eax
 00001216  50		   *	    push   eax
 00001217  E8 0000008E	   *	    call   setEcx2
 0000121C  E8 00000000 E					call crlf

 00001221  BB 00000050 R					mov ebx, offset [drPrice]
 00001226  F7 E3						mul ebx

 00001228  03 05 00000070 R					add eax,bill
 0000122E  A3 00000070 R					mov bill,eax
								
 00001233  EB CE						jmp again

 00001235						cancelDeal:
 00001235  A1 00000080 R					   mov eax, mockBill							  ; Canceled the order and restored the bill
 0000123A  A3 00000070 R					   mov bill, eax
 0000123F  BA 00002AA5 R					   mov edx, offset dealCancel
 00001244  E8 00000000 E					   call writeString
 00001249  E8 00000000 E					   call crlf
 0000124E  EB 54						   jmp finalExit

 00001250						_exit:
 00001250  E8 00000000 E						call crlf
 00001255  BA 0000291C R						mov edx, offset dealItem
 0000125A  E8 00000000 E						call writeString
 0000125F  E8 00000000 E						call crlf
					
 00001264  BA 00001F16 R						mov edx, offset regDrink    				  ; Printing the free desert item menu
 00001269  E8 00000000 E						call writeString
 0000126E  E8 00000000 E						call crlf
 00001273  E8 00000000 E						call readInt
									
 00001278  83 F8 05							cmp eax,5									  ; Error handling for free item
 0000127B  74 B8					        je cancelDeal
 0000127D  83 F8 05						    cmp eax,5
 00001280  7F 1B						    jg selectCorrect
 00001282  83 F8 00						    cmp eax,0
 00001285  7E 16						    jle selectCorrect

 00001287  E8 00000000 E					    call crlf									  ; Printing success message
 0000128C  BA 00002A3A R					    mov edx, offset dealAdded
 00001291  E8 00000000 E					    call writeString
 00001296  E8 00000000 E					    call crlf
 0000129B  EB 07							jmp finalExit
						
 0000129D					selectCorrect:
 0000129D  E8 FFFFF9B8						 call error
 000012A2  EB AC						 jmp _exit
							
 000012A4						finalExit:

 000012A4  9D							POPFD
 000012A5  61							POPAD

								RET
 000012A6  C9		   *	    leave  
 000012A7  C2 0004	   *	    ret    00004h

 000012AA			dealDrinks1_5 ENDP

				;-------------------------------------------------------------------
				;| Checking number of dishes for deals 2-4                          |
				;| Updates: It exit the Loop...                                     |
				;-------------------------------------------------------------------

 000012AA			setEcx2 PROC uses eax, dealQuan1:DWORD
					    
 000012AA  55		   *	    push   ebp
 000012AB  8B EC	   *	    mov    ebp, esp
 000012AD  50		   *	    push   eax
 000012AE  8B 45 08				mov eax, dealQuan1
 000012B1  83 F8 02				cmp eax, 2
 000012B4  7D 02				jge setECX
								   
 000012B6  EB 05				jmp ignore										  ; Check the quantity of dishes to decide the value of ecx register
								   
 000012B8					setECX:
 000012B8  B9 00000001				mov ecx,1

 000012BD					ignore:
						RET
 000012BD  58		   *	    pop    eax
 000012BE  C9		   *	    leave  
 000012BF  C2 0004	   *	    ret    00004h
 000012C2			setEcx2 ENDP

				;-------------------------------------------------------------------
				;| Checking number of dishes for deal 1                             |
				;| Updates: Updates: It exit the Loop...                            |
				;-------------------------------------------------------------------

 000012C2			setEcx3 PROC uses eax, dealQuan2:DWORD
					    
 000012C2  55		   *	    push   ebp
 000012C3  8B EC	   *	    mov    ebp, esp
 000012C5  50		   *	    push   eax
 000012C6  8B 45 08				mov eax, dealQuan2
 000012C9  83 F8 03				cmp eax, 3
 000012CC  7D 02				jge setECX
								   
 000012CE  EB 05				jmp ignore										  ; Check the quantity of dishes to decide the value of ecx register
								   
 000012D0					setECX:
 000012D0  B9 00000001				mov ecx,1

 000012D5					ignore:
						RET
 000012D5  58		   *	    pop    eax
 000012D6  C9		   *	    leave  
 000012D7  C2 0004	   *	    ret    00004h
 000012DA			setEcx3 ENDP

				END main
Microsoft (R) Macro Assembler Version 14.16.27031.1	    12/27/19 11:54:48
RestaurantsBillingSystem.asm				     Symbols 2 - 1




Structures and Unions:

                N a m e                  Size
                                         Offset      Type

CONSOLE_CURSOR_INFO  . . . . . .	 00000008
  dwSize . . . . . . . . . . . .	 00000000	 DWord
  bVisible . . . . . . . . . . .	 00000004	 DWord
CONSOLE_SCREEN_BUFFER_INFO . . .	 00000016
  dwSize . . . . . . . . . . . .	 00000000	 DWord
  dwCursorPosition . . . . . . .	 00000004	 DWord
  wAttributes  . . . . . . . . .	 00000008	 Word
  srWindow . . . . . . . . . . .	 0000000A	 QWord
  dwMaximumWindowSize  . . . . .	 00000012	 DWord
COORD  . . . . . . . . . . . . .	 00000004
  X  . . . . . . . . . . . . . .	 00000000	 Word
  Y  . . . . . . . . . . . . . .	 00000002	 Word
FILETIME . . . . . . . . . . . .	 00000008
  loDateTime . . . . . . . . . .	 00000000	 DWord
  hiDateTime . . . . . . . . . .	 00000004	 DWord
FOCUS_EVENT_RECORD . . . . . . .	 00000004
  bSetFocus  . . . . . . . . . .	 00000000	 DWord
FPU_ENVIRON  . . . . . . . . . .	 0000001C
  controlWord  . . . . . . . . .	 00000000	 Word
  statusWord . . . . . . . . . .	 00000004	 Word
  tagWord  . . . . . . . . . . .	 00000008	 Word
  instrPointerOffset . . . . . .	 0000000C	 DWord
  instrPointerSelector . . . . .	 00000010	 DWord
  operandPointerOffset . . . . .	 00000014	 DWord
  operandPointerSelector . . . .	 00000018	 Word
INPUT_RECORD . . . . . . . . . .	 00000014
  EventType  . . . . . . . . . .	 00000000	 Word
  Event  . . . . . . . . . . . .	 00000004	 XmmWord
  bKeyDown . . . . . . . . . . .	 00000000	 DWord
  wRepeatCount . . . . . . . . .	 00000004	 Word
  wVirtualKeyCode  . . . . . . .	 00000006	 Word
  wVirtualScanCode . . . . . . .	 00000008	 Word
  uChar  . . . . . . . . . . . .	 0000000A	 Word
  UnicodeChar  . . . . . . . . .	 00000000	 Word
  AsciiChar  . . . . . . . . . .	 00000000	 Byte
  dwControlKeyState  . . . . . .	 0000000C	 DWord
  dwMousePosition  . . . . . . .	 00000000	 DWord
  dwButtonState  . . . . . . . .	 00000004	 DWord
  dwMouseControlKeyState . . . .	 00000008	 DWord
  dwEventFlags . . . . . . . . .	 0000000C	 DWord
  dwSize . . . . . . . . . . . .	 00000000	 DWord
  dwCommandId  . . . . . . . . .	 00000000	 DWord
  bSetFocus  . . . . . . . . . .	 00000000	 DWord
KEY_EVENT_RECORD . . . . . . . .	 00000010
  bKeyDown . . . . . . . . . . .	 00000000	 DWord
  wRepeatCount . . . . . . . . .	 00000004	 Word
  wVirtualKeyCode  . . . . . . .	 00000006	 Word
  wVirtualScanCode . . . . . . .	 00000008	 Word
  uChar  . . . . . . . . . . . .	 0000000A	 Word
  UnicodeChar  . . . . . . . . .	 00000000	 Word
  AsciiChar  . . . . . . . . . .	 00000000	 Byte
  dwControlKeyState  . . . . . .	 0000000C	 DWord
MENU_EVENT_RECORD  . . . . . . .	 00000004
  dwCommandId  . . . . . . . . .	 00000000	 DWord
MOUSE_EVENT_RECORD . . . . . . .	 00000010
  dwMousePosition  . . . . . . .	 00000000	 DWord
  dwButtonState  . . . . . . . .	 00000004	 DWord
  dwMouseControlKeyState . . . .	 00000008	 DWord
  dwEventFlags . . . . . . . . .	 0000000C	 DWord
SMALL_RECT . . . . . . . . . . .	 00000008
  Left . . . . . . . . . . . . .	 00000000	 Word
  Top  . . . . . . . . . . . . .	 00000002	 Word
  Right  . . . . . . . . . . . .	 00000004	 Word
  Bottom . . . . . . . . . . . .	 00000006	 Word
SYSTEMTIME . . . . . . . . . . .	 00000010
  wYear  . . . . . . . . . . . .	 00000000	 Word
  wMonth . . . . . . . . . . . .	 00000002	 Word
  wDayOfWeek . . . . . . . . . .	 00000004	 Word
  wDay . . . . . . . . . . . . .	 00000006	 Word
  wHour  . . . . . . . . . . . .	 00000008	 Word
  wMinute  . . . . . . . . . . .	 0000000A	 Word
  wSecond  . . . . . . . . . . .	 0000000C	 Word
  wMilliseconds  . . . . . . . .	 0000000E	 Word
WINDOW_BUFFER_SIZE_RECORD  . . .	 00000004
  dwSize . . . . . . . . . . . .	 00000000	 DWord


Segments and Groups:

                N a m e                 Size     Length   Align   Combine Class

FLAT . . . . . . . . . . . . . .	GROUP
STACK  . . . . . . . . . . . . .	32 Bit	 00001000 Para	  Stack	  'STACK'	 
_DATA  . . . . . . . . . . . . .	32 Bit	 00002AF4 Para	  Public  'DATA'	
_TEXT  . . . . . . . . . . . . .	32 Bit	 000012DA Para	  Public  'CODE'	


Procedures, parameters, and locals:

                N a m e                 Type     Value    Attr

ChineseMenu  . . . . . . . . . .	P Near	 00000755 _TEXT	Length= 000000DF Public STDCALL
  op . . . . . . . . . . . . . .	L Near	 00000757 _TEXT	
  cm . . . . . . . . . . . . . .	L Near	 00000798 _TEXT	
  fr . . . . . . . . . . . . . .	L Near	 000007BC _TEXT	
  mn . . . . . . . . . . . . . .	L Near	 000007E3 _TEXT	
  sh . . . . . . . . . . . . . .	L Near	 0000080A _TEXT	
  _exit  . . . . . . . . . . . .	L Near	 00000831 _TEXT	
CloseFile  . . . . . . . . . . .	P Near	 00000000 FLAT	Length= 00000000 External STDCALL
CloseHandle  . . . . . . . . . .	P Near	 00000000 FLAT	Length= 00000000 External STDCALL
Clrscr . . . . . . . . . . . . .	P Near	 00000000 FLAT	Length= 00000000 External STDCALL
CreateFileA  . . . . . . . . . .	P Near	 00000000 FLAT	Length= 00000000 External STDCALL
CreateOutputFile . . . . . . . .	P Near	 00000000 FLAT	Length= 00000000 External STDCALL
Crlf . . . . . . . . . . . . . .	P Near	 00000000 FLAT	Length= 00000000 External STDCALL
Delay  . . . . . . . . . . . . .	P Near	 00000000 FLAT	Length= 00000000 External STDCALL
DessertMenu  . . . . . . . . . .	P Near	 00000913 _TEXT	Length= 000000DF Public STDCALL
  op . . . . . . . . . . . . . .	L Near	 00000915 _TEXT	
  pc . . . . . . . . . . . . . .	L Near	 00000956 _TEXT	
  cc . . . . . . . . . . . . . .	L Near	 0000097A _TEXT	
  cu . . . . . . . . . . . . . .	L Near	 000009A1 _TEXT	
  ic . . . . . . . . . . . . . .	L Near	 000009C8 _TEXT	
  _exit  . . . . . . . . . . . .	L Near	 000009EF _TEXT	
DrinksMenu . . . . . . . . . . .	P Near	 000009F2 _TEXT	Length= 000001A6 Public STDCALL
  op . . . . . . . . . . . . . .	L Near	 000009F4 _TEXT	
  cj . . . . . . . . . . . . . .	L Near	 00000A5D _TEXT	
  sj . . . . . . . . . . . . . .	L Near	 00000A84 _TEXT	
  cr . . . . . . . . . . . . . .	L Near	 00000AAB _TEXT	
  sr . . . . . . . . . . . . . .	L Near	 00000AD2 _TEXT	
  pj . . . . . . . . . . . . . .	L Near	 00000AF9 _TEXT	
  ma . . . . . . . . . . . . . .	L Near	 00000B20 _TEXT	
  co . . . . . . . . . . . . . .	L Near	 00000B47 _TEXT	
  te . . . . . . . . . . . . . .	L Near	 00000B6E _TEXT	
  _exit  . . . . . . . . . . . .	L Near	 00000B95 _TEXT	
DumpMem  . . . . . . . . . . . .	P Near	 00000000 FLAT	Length= 00000000 External STDCALL
DumpRegs . . . . . . . . . . . .	P Near	 00000000 FLAT	Length= 00000000 External STDCALL
ExitProcess  . . . . . . . . . .	P Near	 00000000 FLAT	Length= 00000000 External STDCALL
FastFoodMenu . . . . . . . . . .	P Near	 00000834 _TEXT	Length= 000000DF Public STDCALL
  op . . . . . . . . . . . . . .	L Near	 00000836 _TEXT	
  cp . . . . . . . . . . . . . .	L Near	 00000877 _TEXT	
  zb . . . . . . . . . . . . . .	L Near	 0000089B _TEXT	
  sw . . . . . . . . . . . . . .	L Near	 000008C2 _TEXT	
  ff . . . . . . . . . . . . . .	L Near	 000008E9 _TEXT	
  _exit  . . . . . . . . . . . .	L Near	 00000910 _TEXT	
FileTimeToDosDateTime  . . . . .	P Near	 00000000 FLAT	Length= 00000000 External STDCALL
FileTimeToSystemTime . . . . . .	P Near	 00000000 FLAT	Length= 00000000 External STDCALL
FlushConsoleInputBuffer  . . . .	P Near	 00000000 FLAT	Length= 00000000 External STDCALL
FormatMessageA . . . . . . . . .	P Near	 00000000 FLAT	Length= 00000000 External STDCALL
GetCommandLineA  . . . . . . . .	P Near	 00000000 FLAT	Length= 00000000 External STDCALL
GetCommandTail . . . . . . . . .	P Near	 00000000 FLAT	Length= 00000000 External STDCALL
GetConsoleCP . . . . . . . . . .	P Near	 00000000 FLAT	Length= 00000000 External STDCALL
GetConsoleCursorInfo . . . . . .	P Near	 00000000 FLAT	Length= 00000000 External STDCALL
GetConsoleMode . . . . . . . . .	P Near	 00000000 FLAT	Length= 00000000 External STDCALL
GetConsoleScreenBufferInfo . . .	P Near	 00000000 FLAT	Length= 00000000 External STDCALL
GetDateTime  . . . . . . . . . .	P Near	 00000000 FLAT	Length= 00000000 External STDCALL
GetFileTime  . . . . . . . . . .	P Near	 00000000 FLAT	Length= 00000000 External STDCALL
GetKeyState  . . . . . . . . . .	P Near	 00000000 FLAT	Length= 00000000 External STDCALL
GetLastError . . . . . . . . . .	P Near	 00000000 FLAT	Length= 00000000 External STDCALL
GetLocalTime . . . . . . . . . .	P Near	 00000000 FLAT	Length= 00000000 External STDCALL
GetMaxXY . . . . . . . . . . . .	P Near	 00000000 FLAT	Length= 00000000 External STDCALL
GetMseconds  . . . . . . . . . .	P Near	 00000000 FLAT	Length= 00000000 External STDCALL
GetNumberOfConsoleInputEvents  .	P Near	 00000000 FLAT	Length= 00000000 External STDCALL
GetProcessHeap . . . . . . . . .	P Near	 00000000 FLAT	Length= 00000000 External STDCALL
GetStdHandle . . . . . . . . . .	P Near	 00000000 FLAT	Length= 00000000 External STDCALL
GetSystemTime  . . . . . . . . .	P Near	 00000000 FLAT	Length= 00000000 External STDCALL
GetTextColor . . . . . . . . . .	P Near	 00000000 FLAT	Length= 00000000 External STDCALL
GetTickCount . . . . . . . . . .	P Near	 00000000 FLAT	Length= 00000000 External STDCALL
Gotoxy . . . . . . . . . . . . .	P Near	 00000000 FLAT	Length= 00000000 External STDCALL
HeapAlloc  . . . . . . . . . . .	P Near	 00000000 FLAT	Length= 00000000 External STDCALL
HeapCreate . . . . . . . . . . .	P Near	 00000000 FLAT	Length= 00000000 External STDCALL
HeapDestroy  . . . . . . . . . .	P Near	 00000000 FLAT	Length= 00000000 External STDCALL
HeapFree . . . . . . . . . . . .	P Near	 00000000 FLAT	Length= 00000000 External STDCALL
HeapSize . . . . . . . . . . . .	P Near	 00000000 FLAT	Length= 00000000 External STDCALL
IsDigit  . . . . . . . . . . . .	P Near	 00000000 FLAT	Length= 00000000 External STDCALL
LocalFree  . . . . . . . . . . .	P Near	 00000000 FLAT	Length= 00000000 External STDCALL
MessageBoxA  . . . . . . . . . .	P Near	 00000000 FLAT	Length= 00000000 External STDCALL
MsgBoxAsk  . . . . . . . . . . .	P Near	 00000000 FLAT	Length= 00000000 External STDCALL
MsgBox . . . . . . . . . . . . .	P Near	 00000000 FLAT	Length= 00000000 External STDCALL
NumbToStr  . . . . . . . . . . .	P Near	 000003B4 _TEXT	Length= 00000027 Public STDCALL
  x  . . . . . . . . . . . . . .	DWord	 bp + 00000008
  buffer . . . . . . . . . . . .	DWord	 bp + 0000000C
OpenInputFile  . . . . . . . . .	P Near	 00000000 FLAT	Length= 00000000 External STDCALL
OrientalMenu . . . . . . . . . .	P Near	 000005AF _TEXT	Length= 000001A6 Public STDCALL
  op . . . . . . . . . . . . . .	L Near	 000005B1 _TEXT	
  cq . . . . . . . . . . . . . .	L Near	 0000061A _TEXT	
  pu . . . . . . . . . . . . . .	L Near	 00000641 _TEXT	
  cb . . . . . . . . . . . . . .	L Near	 00000668 _TEXT	
  ck . . . . . . . . . . . . . .	L Near	 0000068F _TEXT	
  ct . . . . . . . . . . . . . .	L Near	 000006B6 _TEXT	
  mh . . . . . . . . . . . . . .	L Near	 000006DD _TEXT	
  na . . . . . . . . . . . . . .	L Near	 00000704 _TEXT	
  rt . . . . . . . . . . . . . .	L Near	 0000072B _TEXT	
  _exit  . . . . . . . . . . . .	L Near	 00000752 _TEXT	
ParseDecimal32 . . . . . . . . .	P Near	 00000000 FLAT	Length= 00000000 External STDCALL
ParseInteger32 . . . . . . . . .	P Near	 00000000 FLAT	Length= 00000000 External STDCALL
PeekConsoleInputA  . . . . . . .	P Near	 00000000 FLAT	Length= 00000000 External STDCALL
Random32 . . . . . . . . . . . .	P Near	 00000000 FLAT	Length= 00000000 External STDCALL
RandomRange  . . . . . . . . . .	P Near	 00000000 FLAT	Length= 00000000 External STDCALL
Randomize  . . . . . . . . . . .	P Near	 00000000 FLAT	Length= 00000000 External STDCALL
ReadChar . . . . . . . . . . . .	P Near	 00000000 FLAT	Length= 00000000 External STDCALL
ReadConsoleA . . . . . . . . . .	P Near	 00000000 FLAT	Length= 00000000 External STDCALL
ReadConsoleInputA  . . . . . . .	P Near	 00000000 FLAT	Length= 00000000 External STDCALL
ReadDec  . . . . . . . . . . . .	P Near	 00000000 FLAT	Length= 00000000 External STDCALL
ReadFile . . . . . . . . . . . .	P Near	 00000000 FLAT	Length= 00000000 External STDCALL
ReadFloat  . . . . . . . . . . .	P Near	 00000000 FLAT	Length= 00000000 External STDCALL
ReadFromFile . . . . . . . . . .	P Near	 00000000 FLAT	Length= 00000000 External STDCALL
ReadHex  . . . . . . . . . . . .	P Near	 00000000 FLAT	Length= 00000000 External STDCALL
ReadInt  . . . . . . . . . . . .	P Near	 00000000 FLAT	Length= 00000000 External STDCALL
ReadKeyFlush . . . . . . . . . .	P Near	 00000000 FLAT	Length= 00000000 External STDCALL
ReadKey  . . . . . . . . . . . .	P Near	 00000000 FLAT	Length= 00000000 External STDCALL
ReadString . . . . . . . . . . .	P Near	 00000000 FLAT	Length= 00000000 External STDCALL
SetConsoleCursorInfo . . . . . .	P Near	 00000000 FLAT	Length= 00000000 External STDCALL
SetConsoleCursorPosition . . . .	P Near	 00000000 FLAT	Length= 00000000 External STDCALL
SetConsoleMode . . . . . . . . .	P Near	 00000000 FLAT	Length= 00000000 External STDCALL
SetConsoleScreenBufferSize . . .	P Near	 00000000 FLAT	Length= 00000000 External STDCALL
SetConsoleTextAttribute  . . . .	P Near	 00000000 FLAT	Length= 00000000 External STDCALL
SetConsoleTitleA . . . . . . . .	P Near	 00000000 FLAT	Length= 00000000 External STDCALL
SetConsoleWindowInfo . . . . . .	P Near	 00000000 FLAT	Length= 00000000 External STDCALL
SetFilePointer . . . . . . . . .	P Near	 00000000 FLAT	Length= 00000000 External STDCALL
SetLocalTime . . . . . . . . . .	P Near	 00000000 FLAT	Length= 00000000 External STDCALL
SetTextColor . . . . . . . . . .	P Near	 00000000 FLAT	Length= 00000000 External STDCALL
ShowFPUStack . . . . . . . . . .	P Near	 00000000 FLAT	Length= 00000000 External STDCALL
Sleep  . . . . . . . . . . . . .	P Near	 00000000 FLAT	Length= 00000000 External STDCALL
StrLength  . . . . . . . . . . .	P Near	 00000000 FLAT	Length= 00000000 External STDCALL
Str_compare  . . . . . . . . . .	P Near	 00000000 FLAT	Length= 00000000 External STDCALL
Str_copy . . . . . . . . . . . .	P Near	 00000000 FLAT	Length= 00000000 External STDCALL
Str_length . . . . . . . . . . .	P Near	 00000000 FLAT	Length= 00000000 External STDCALL
Str_trim . . . . . . . . . . . .	P Near	 00000000 FLAT	Length= 00000000 External STDCALL
Str_ucase  . . . . . . . . . . .	P Near	 00000000 FLAT	Length= 00000000 External STDCALL
SystemTimeToFileTime . . . . . .	P Near	 00000000 FLAT	Length= 00000000 External STDCALL
WaitMsg  . . . . . . . . . . . .	P Near	 00000000 FLAT	Length= 00000000 External STDCALL
WriteBinB  . . . . . . . . . . .	P Near	 00000000 FLAT	Length= 00000000 External STDCALL
WriteBin . . . . . . . . . . . .	P Near	 00000000 FLAT	Length= 00000000 External STDCALL
WriteChar  . . . . . . . . . . .	P Near	 00000000 FLAT	Length= 00000000 External STDCALL
WriteConsoleA  . . . . . . . . .	P Near	 00000000 FLAT	Length= 00000000 External STDCALL
WriteConsoleOutputAttribute  . .	P Near	 00000000 FLAT	Length= 00000000 External STDCALL
WriteConsoleOutputCharacterA . .	P Near	 00000000 FLAT	Length= 00000000 External STDCALL
WriteDec . . . . . . . . . . . .	P Near	 00000000 FLAT	Length= 00000000 External STDCALL
WriteFile  . . . . . . . . . . .	P Near	 00000000 FLAT	Length= 00000000 External STDCALL
WriteFloat . . . . . . . . . . .	P Near	 00000000 FLAT	Length= 00000000 External STDCALL
WriteHexB  . . . . . . . . . . .	P Near	 00000000 FLAT	Length= 00000000 External STDCALL
WriteHex . . . . . . . . . . . .	P Near	 00000000 FLAT	Length= 00000000 External STDCALL
WriteInt . . . . . . . . . . . .	P Near	 00000000 FLAT	Length= 00000000 External STDCALL
WriteStackFrameName  . . . . . .	P Near	 00000000 FLAT	Length= 00000000 External STDCALL
WriteStackFrame  . . . . . . . .	P Near	 00000000 FLAT	Length= 00000000 External STDCALL
WriteString  . . . . . . . . . .	P Near	 00000000 FLAT	Length= 00000000 External STDCALL
WriteToFile  . . . . . . . . . .	P Near	 00000000 FLAT	Length= 00000000 External STDCALL
WriteWindowsMsg  . . . . . . . .	P Near	 00000000 FLAT	Length= 00000000 External STDCALL
admin  . . . . . . . . . . . . .	P Near	 0000006C _TEXT	Length= 00000127 Public STDCALL
  ok . . . . . . . . . . . . . .	L Near	 000000A1 _TEXT	
  pb . . . . . . . . . . . . . .	L Near	 000000D4 _TEXT	
  rp . . . . . . . . . . . . . .	L Near	 000000FE _TEXT	
  wrongReset . . . . . . . . . .	L Near	 00000145 _TEXT	
  wrong  . . . . . . . . . . . .	L Near	 0000016D _TEXT	
  _exit  . . . . . . . . . . . .	L Near	 00000190 _TEXT	
check  . . . . . . . . . . . . .	P Near	 000003DB _TEXT	Length= 0000003E Public STDCALL
  lab  . . . . . . . . . . . . .	L Near	 000003F3 _TEXT	
  notEqual . . . . . . . . . . .	L Near	 0000040C _TEXT	
  _exit  . . . . . . . . . . . .	L Near	 00000416 _TEXT	
choiceMenu . . . . . . . . . . .	P Near	 00000549 _TEXT	Length= 00000066 Public STDCALL
  op . . . . . . . . . . . . . .	L Near	 0000054B _TEXT	
  ot . . . . . . . . . . . . . .	L Near	 00000589 _TEXT	
  cn . . . . . . . . . . . . . .	L Near	 00000590 _TEXT	
  ff . . . . . . . . . . . . . .	L Near	 00000597 _TEXT	
  de . . . . . . . . . . . . . .	L Near	 0000059E _TEXT	
  dr . . . . . . . . . . . . . .	L Near	 000005A5 _TEXT	
  _exit  . . . . . . . . . . . .	L Near	 000005AC _TEXT	
customer . . . . . . . . . . . .	P Near	 00000419 _TEXT	Length= 0000008C Public STDCALL
  op . . . . . . . . . . . . . .	L Near	 0000041B _TEXT	
  pm . . . . . . . . . . . . . .	L Near	 00000454 _TEXT	
  do . . . . . . . . . . . . . .	L Near	 00000474 _TEXT	
  cm . . . . . . . . . . . . . .	L Near	 0000047B _TEXT	
  rb . . . . . . . . . . . . . .	L Near	 00000482 _TEXT	
  _exit  . . . . . . . . . . . .	L Near	 00000489 _TEXT	
dealChineseMenu  . . . . . . . .	P Near	 00000ECB _TEXT	Length= 0000017C Public STDCALL
  noOfDishes . . . . . . . . . .	DWord	 bp + 00000008
  op . . . . . . . . . . . . . .	L Near	 00000EDD _TEXT	
  again  . . . . . . . . . . . .	L Near	 00000F1D _TEXT	
  cm . . . . . . . . . . . . . .	L Near	 00000F24 _TEXT	
  fr . . . . . . . . . . . . . .	L Near	 00000F4E _TEXT	
  mn . . . . . . . . . . . . . .	L Near	 00000F78 _TEXT	
  sh . . . . . . . . . . . . . .	L Near	 00000FA5 _TEXT	
  cancelDeal . . . . . . . . . .	L Near	 00000FD2 _TEXT	
  _exit  . . . . . . . . . . . .	L Near	 00000FED _TEXT	
  selectCorrect  . . . . . . . .	L Near	 0000103A _TEXT	
  finalExit  . . . . . . . . . .	L Near	 00001041 _TEXT	
dealDrinks1_5  . . . . . . . . .	P Near	 000011C3 _TEXT	Length= 000000E7 Public STDCALL
  noOfDrinks . . . . . . . . . .	DWord	 bp + 00000008
  op . . . . . . . . . . . . . .	L Near	 000011D5 _TEXT	
  again  . . . . . . . . . . . .	L Near	 00001203 _TEXT	
  drink  . . . . . . . . . . . .	L Near	 00001207 _TEXT	
  cancelDeal . . . . . . . . . .	L Near	 00001235 _TEXT	
  _exit  . . . . . . . . . . . .	L Near	 00001250 _TEXT	
  selectCorrect  . . . . . . . .	L Near	 0000129D _TEXT	
  finalExit  . . . . . . . . . .	L Near	 000012A4 _TEXT	
dealFastFoodMenu . . . . . . . .	P Near	 00001047 _TEXT	Length= 0000017C Public STDCALL
  noOfDishes . . . . . . . . . .	DWord	 bp + 00000008
  op . . . . . . . . . . . . . .	L Near	 00001059 _TEXT	
  again  . . . . . . . . . . . .	L Near	 00001099 _TEXT	
  cp . . . . . . . . . . . . . .	L Near	 000010A0 _TEXT	
  zb . . . . . . . . . . . . . .	L Near	 000010CA _TEXT	
  sw . . . . . . . . . . . . . .	L Near	 000010F4 _TEXT	
  ff . . . . . . . . . . . . . .	L Near	 00001121 _TEXT	
  cancelDeal . . . . . . . . . .	L Near	 0000114E _TEXT	
  _exit  . . . . . . . . . . . .	L Near	 00001169 _TEXT	
  selectCorrect  . . . . . . . .	L Near	 000011B6 _TEXT	
  finalExit  . . . . . . . . . .	L Near	 000011BD _TEXT	
dealOrientalMenu . . . . . . . .	P Near	 00000C73 _TEXT	Length= 00000258 Public STDCALL
  noOfDishes . . . . . . . . . .	DWord	 bp + 00000008
  op . . . . . . . . . . . . . .	L Near	 00000C85 _TEXT	
  again  . . . . . . . . . . . .	L Near	 00000CED _TEXT	
  cq . . . . . . . . . . . . . .	L Near	 00000CF4 _TEXT	
  pu . . . . . . . . . . . . . .	L Near	 00000D1E _TEXT	
  cb . . . . . . . . . . . . . .	L Near	 00000D48 _TEXT	
  ck . . . . . . . . . . . . . .	L Near	 00000D75 _TEXT	
  ct . . . . . . . . . . . . . .	L Near	 00000DA2 _TEXT	
  mh . . . . . . . . . . . . . .	L Near	 00000DCF _TEXT	
  na . . . . . . . . . . . . . .	L Near	 00000DFC _TEXT	
  rt . . . . . . . . . . . . . .	L Near	 00000E29 _TEXT	
  cancelDeal . . . . . . . . . .	L Near	 00000E56 _TEXT	
  _exit  . . . . . . . . . . . .	L Near	 00000E71 _TEXT	
  selectCorrect  . . . . . . . .	L Near	 00000EBE _TEXT	
  finalExit  . . . . . . . . . .	L Near	 00000EC5 _TEXT	
dealsOffers  . . . . . . . . . .	P Near	 000004A5 _TEXT	Length= 000000A4 Public STDCALL
  deal . . . . . . . . . . . . .	L Near	 000004A7 _TEXT	
  d1 . . . . . . . . . . . . . .	L Near	 000004E0 _TEXT	
  d2 . . . . . . . . . . . . . .	L Near	 000004F7 _TEXT	
  d3 . . . . . . . . . . . . . .	L Near	 0000050E _TEXT	
  d4 . . . . . . . . . . . . . .	L Near	 00000525 _TEXT	
  _exit  . . . . . . . . . . . .	L Near	 0000053C _TEXT	
discount . . . . . . . . . . . .	P Near	 00000BB6 _TEXT	Length= 0000003B Public STDCALL
  disc . . . . . . . . . . . . .	L Near	 00000BC6 _TEXT	
  _exit  . . . . . . . . . . . .	L Near	 00000BEE _TEXT	
error  . . . . . . . . . . . . .	P Near	 00000C5A _TEXT	Length= 00000019 Public STDCALL
inputPass  . . . . . . . . . . .	P Near	 000001FA _TEXT	Length= 00000027 Public STDCALL
  passString . . . . . . . . . .	DWord	 bp + 00000008
  _exit  . . . . . . . . . . . .	L Near	 0000021B _TEXT	
main . . . . . . . . . . . . . .	P Near	 00000000 _TEXT	Length= 0000006C Public STDCALL
  op . . . . . . . . . . . . . .	L Near	 00000019 _TEXT	
  ad . . . . . . . . . . . . . .	L Near	 0000004D _TEXT	
  cu . . . . . . . . . . . . . .	L Near	 00000054 _TEXT	
  _exit  . . . . . . . . . . . .	L Near	 0000005B _TEXT	
printBill  . . . . . . . . . . .	P Near	 00000BF1 _TEXT	Length= 00000069 Public STDCALL
printf . . . . . . . . . . . . .	P Near	 00000000 FLAT	Length= 00000000 External C
readPasswordFile . . . . . . . .	P Near	 00000221 _TEXT	Length= 0000006D Public STDCALL
  err  . . . . . . . . . . . . .	L Near	 0000027C _TEXT	
  _exit  . . . . . . . . . . . .	L Near	 0000028B _TEXT	
readSalesFile  . . . . . . . . .	P Near	 00000193 _TEXT	Length= 00000067 Public STDCALL
  err  . . . . . . . . . . . . .	L Near	 000001E8 _TEXT	
  _exit  . . . . . . . . . . . .	L Near	 000001F7 _TEXT	
resetBill  . . . . . . . . . . .	P Near	 00000B98 _TEXT	Length= 0000001E Public STDCALL
scanf  . . . . . . . . . . . . .	P Near	 00000000 FLAT	Length= 00000000 External C
setEcx2  . . . . . . . . . . . .	P Near	 000012AA _TEXT	Length= 00000018 Public STDCALL
  dealQuan1  . . . . . . . . . .	DWord	 bp + 00000008
  setECX . . . . . . . . . . . .	L Near	 000012B8 _TEXT	
  ignore . . . . . . . . . . . .	L Near	 000012BD _TEXT	
setEcx3  . . . . . . . . . . . .	P Near	 000012C2 _TEXT	Length= 00000018 Public STDCALL
  dealQuan2  . . . . . . . . . .	DWord	 bp + 00000008
  setECX . . . . . . . . . . . .	L Near	 000012D0 _TEXT	
  ignore . . . . . . . . . . . .	L Near	 000012D5 _TEXT	
writePassword  . . . . . . . . .	P Near	 0000028E _TEXT	Length= 0000006A Public STDCALL
  err  . . . . . . . . . . . . .	L Near	 000002E6 _TEXT	
  _exit  . . . . . . . . . . . .	L Near	 000002F5 _TEXT	
writeSales . . . . . . . . . . .	P Near	 000002F8 _TEXT	Length= 000000BC Public STDCALL
  err  . . . . . . . . . . . . .	L Near	 000003A2 _TEXT	
  _exit  . . . . . . . . . . . .	L Near	 000003B1 _TEXT	
wsprintfA  . . . . . . . . . . .	P Near	 00000000 FLAT	Length= 00000000 External C


Symbols:

                N a m e                 Type     Value    Attr

@CodeSize  . . . . . . . . . . .	Number	 00000000h   
@DataSize  . . . . . . . . . . .	Number	 00000000h   
@Interface . . . . . . . . . . .	Number	 00000003h   
@Model . . . . . . . . . . . . .	Number	 00000007h   
@code  . . . . . . . . . . . . .	Text   	 _TEXT
@data  . . . . . . . . . . . . .	Text   	 FLAT
@fardata?  . . . . . . . . . . .	Text   	 FLAT
@fardata . . . . . . . . . . . .	Text   	 FLAT
@stack . . . . . . . . . . . . .	Text   	 FLAT
ALT_MASK . . . . . . . . . . . .	Number	 00000003h   
BUFFER_SIZE  . . . . . . . . . .	Number	 00001388h   
CAPSLOCK_ON  . . . . . . . . . .	Number	 00000080h   
CREATE_ALWAYS  . . . . . . . . .	Number	 00000002h   
CREATE_NEW . . . . . . . . . . .	Number	 00000001h   
CTRL_MASK  . . . . . . . . . . .	Number	 0000000Ch   
CreateFile . . . . . . . . . . .	Text   	 CreateFileA
DO_NOT_SHARE . . . . . . . . . .	Number	 00000000h   
ENABLE_ECHO_INPUT  . . . . . . .	Number	 00000004h   
ENABLE_LINE_INPUT  . . . . . . .	Number	 00000002h   
ENABLE_MOUSE_INPUT . . . . . . .	Number	 00000010h   
ENABLE_PROCESSED_INPUT . . . . .	Number	 00000001h   
ENABLE_PROCESSED_OUTPUT  . . . .	Number	 00000001h   
ENABLE_WINDOW_INPUT  . . . . . .	Number	 00000008h   
ENABLE_WRAP_AT_EOL_OUTPUT  . . .	Number	 00000002h   
ENHANCED_KEY . . . . . . . . . .	Number	 00000100h   
FALSE  . . . . . . . . . . . . .	Number	 00000000h   
FILE_APPEND_DATA . . . . . . . .	Number	 00000004h   
FILE_ATTRIBUTE_ARCHIVE . . . . .	Number	 00000020h   
FILE_ATTRIBUTE_COMPRESSED  . . .	Number	 00000800h   
FILE_ATTRIBUTE_DEVICE  . . . . .	Number	 00000040h   
FILE_ATTRIBUTE_DIRECTORY . . . .	Number	 00000010h   
FILE_ATTRIBUTE_ENCRYPTED . . . .	Number	 00004000h   
FILE_ATTRIBUTE_HIDDEN  . . . . .	Number	 00000002h   
FILE_ATTRIBUTE_NORMAL  . . . . .	Number	 00000080h   
FILE_ATTRIBUTE_NOT_CONTENT_INDEXED .	Number	 00002000h   
FILE_ATTRIBUTE_OFFLINE . . . . .	Number	 00001000h   
FILE_ATTRIBUTE_READONLY  . . . .	Number	 00000001h   
FILE_ATTRIBUTE_REPARSE_POINT . .	Number	 00000400h   
FILE_ATTRIBUTE_SPARSE_FILE . . .	Number	 00000200h   
FILE_ATTRIBUTE_SYSTEM  . . . . .	Number	 00000004h   
FILE_ATTRIBUTE_TEMPORARY . . . .	Number	 00000100h   
FILE_BEGIN . . . . . . . . . . .	Number	 00000000h   
FILE_CURRENT . . . . . . . . . .	Number	 00000001h   
FILE_DELETE_CHILD  . . . . . . .	Number	 00000040h   
FILE_END . . . . . . . . . . . .	Number	 00000002h   
FILE_READ_DATA . . . . . . . . .	Number	 00000001h   
FILE_SHARE_DELETE  . . . . . . .	Number	 00000004h   
FILE_SHARE_READ  . . . . . . . .	Number	 00000001h   
FILE_SHARE_WRITE . . . . . . . .	Number	 00000002h   
FILE_WRITE_DATA  . . . . . . . .	Number	 00000002h   
FOCUS_EVENT  . . . . . . . . . .	Number	 00000010h   
FORMAT_MESSAGE_ALLOCATE_BUFFER .	Number	 00000100h   
FORMAT_MESSAGE_FROM_SYSTEM . . .	Number	 00001000h   
FormatMessage  . . . . . . . . .	Text   	 FormatMessageA
GENERIC_ALL  . . . . . . . . . .	Number	 10000000h   
GENERIC_EXECUTE  . . . . . . . .	Number	 20000000h   
GENERIC_READ . . . . . . . . . .	Number	 -80000000h   
GENERIC_WRITE  . . . . . . . . .	Number	 40000000h   
GetCommandLine . . . . . . . . .	Text   	 GetCommandLineA
HANDLE . . . . . . . . . . . . .	Text   	 DWORD
HEAP_GENERATE_EXCEPTIONS . . . .	Number	 00000004h   
HEAP_GROWABLE  . . . . . . . . .	Number	 00000002h   
HEAP_NO_SERIALIZE  . . . . . . .	Number	 00000001h   
HEAP_REALLOC_IN_PLACE_ONLY . . .	Number	 00000010h   
HEAP_ZERO_MEMORY . . . . . . . .	Number	 00000008h   
IDABORT  . . . . . . . . . . . .	Number	 00000003h   
IDCANCEL . . . . . . . . . . . .	Number	 00000002h   
IDCLOSE  . . . . . . . . . . . .	Number	 00000008h   
IDCONTINUE . . . . . . . . . . .	Number	 0000000Bh   
IDHELP . . . . . . . . . . . . .	Number	 00000009h   
IDIGNORE . . . . . . . . . . . .	Number	 00000005h   
IDNO . . . . . . . . . . . . . .	Number	 00000007h   
IDOK . . . . . . . . . . . . . .	Number	 00000001h   
IDRETRY  . . . . . . . . . . . .	Number	 00000004h   
IDTIMEOUT  . . . . . . . . . . .	Number	 00007D00h   
IDTRYAGAIN . . . . . . . . . . .	Number	 0000000Ah   
IDYES  . . . . . . . . . . . . .	Number	 00000006h   
INPUT_SIZE . . . . . . . . . . .	Number	 00000011h   
INVALID_HANDLE_VALUE . . . . . .	Number	 -00000001h   
KBDOWN_FLAG  . . . . . . . . . .	Number	 00000001h   
KEY_EVENT  . . . . . . . . . . .	Number	 00000001h   
KEY_MASKS  . . . . . . . . . . .	Number	 0000001Fh   
LEFT_ALT_PRESSED . . . . . . . .	Number	 00000002h   
LEFT_CTRL_PRESSED  . . . . . . .	Number	 00000008h   
MB_ABORTRETRYIGNORE  . . . . . .	Number	 00000002h   
MB_APPLMODAL . . . . . . . . . .	Number	 00000000h   
MB_CANCELTRYCONTINUE . . . . . .	Number	 00000006h   
MB_DEFBUTTON1  . . . . . . . . .	Number	 00000000h   
MB_DEFBUTTON2  . . . . . . . . .	Number	 00000100h   
MB_DEFBUTTON3  . . . . . . . . .	Number	 00000200h   
MB_DEFBUTTON4  . . . . . . . . .	Number	 00000300h   
MB_HELP  . . . . . . . . . . . .	Number	 00004000h   
MB_ICONASTERISK  . . . . . . . .	Number	 00000040h   
MB_ICONERROR . . . . . . . . . .	Number	 00000010h   
MB_ICONEXCLAMATION . . . . . . .	Number	 00000030h   
MB_ICONHAND  . . . . . . . . . .	Number	 00000010h   
MB_ICONINFORMATION . . . . . . .	Number	 00000040h   
MB_ICONQUESTION  . . . . . . . .	Number	 00000020h   
MB_ICONSTOP  . . . . . . . . . .	Number	 00000010h   
MB_ICONWARNING . . . . . . . . .	Number	 00000030h   
MB_OKCANCEL  . . . . . . . . . .	Number	 00000001h   
MB_OK  . . . . . . . . . . . . .	Number	 00000000h   
MB_RETRYCANCEL . . . . . . . . .	Number	 00000005h   
MB_SYSTEMMODAL . . . . . . . . .	Number	 00001000h   
MB_TASKMODAL . . . . . . . . . .	Number	 00002000h   
MB_USERICON  . . . . . . . . . .	Number	 00000080h   
MB_YESNOCANCEL . . . . . . . . .	Number	 00000003h   
MB_YESNO . . . . . . . . . . . .	Number	 00000004h   
MENU_EVENT . . . . . . . . . . .	Number	 00000008h   
MOUSE_EVENT  . . . . . . . . . .	Number	 00000002h   
MessageBox . . . . . . . . . . .	Text   	 MessageBoxA
NULL . . . . . . . . . . . . . .	Number	 00000000h   
NUMLOCK_ON . . . . . . . . . . .	Number	 00000020h   
OPEN_ALWAYS  . . . . . . . . . .	Number	 00000004h   
OPEN_EXISTING  . . . . . . . . .	Number	 00000003h   
PASSWORD_SIZE  . . . . . . . . .	Number	 0000000Fh   
PeekConsoleInput . . . . . . . .	Text   	 PeekConsoleInputA
RIGHT_ALT_PRESSED  . . . . . . .	Number	 00000001h   
RIGHT_CTRL_PRESSED . . . . . . .	Number	 00000004h   
ReadConsoleInput . . . . . . . .	Text   	 ReadConsoleInputA
ReadConsole  . . . . . . . . . .	Text   	 ReadConsoleA
SALE_SIZE  . . . . . . . . . . .	Number	 00000014h   
SCROLLLOCK_ON  . . . . . . . . .	Number	 00000040h   
SHIFT_MASK . . . . . . . . . . .	Number	 00000010h   
SHIFT_PRESSED  . . . . . . . . .	Number	 00000010h   
STD_ERROR_HANDLE . . . . . . . .	Number	 -0000000Ch   
STD_INPUT_HANDLE . . . . . . . .	Number	 -0000000Ah   
STD_OUTPUT_HANDLE  . . . . . . .	Number	 -0000000Bh   
SetConsoleTitle  . . . . . . . .	Text   	 SetConsoleTitleA
TAB  . . . . . . . . . . . . . .	Number	 00000009h   
TRUE . . . . . . . . . . . . . .	Number	 00000001h   
TRUNCATE_EXISTING  . . . . . . .	Number	 00000005h   
VK_11  . . . . . . . . . . . . .	Number	 000000BDh   
VK_12  . . . . . . . . . . . . .	Number	 000000BBh   
VK_ADD . . . . . . . . . . . . .	Number	 0000006Bh   
VK_BACK  . . . . . . . . . . . .	Number	 00000008h   
VK_CANCEL  . . . . . . . . . . .	Number	 00000003h   
VK_CAPITAL . . . . . . . . . . .	Number	 00000014h   
VK_CLEAR . . . . . . . . . . . .	Number	 0000000Ch   
VK_CONTROL . . . . . . . . . . .	Number	 00000011h   
VK_DECIMAL . . . . . . . . . . .	Number	 0000006Eh   
VK_DELETE  . . . . . . . . . . .	Number	 0000002Eh   
VK_DIVIDE  . . . . . . . . . . .	Number	 0000006Fh   
VK_DOWN  . . . . . . . . . . . .	Number	 00000028h   
VK_END . . . . . . . . . . . . .	Number	 00000023h   
VK_ESCAPE  . . . . . . . . . . .	Number	 0000001Bh   
VK_EXECUTE . . . . . . . . . . .	Number	 0000002Bh   
VK_F10 . . . . . . . . . . . . .	Number	 00000079h   
VK_F11 . . . . . . . . . . . . .	Number	 0000007Ah   
VK_F12 . . . . . . . . . . . . .	Number	 0000007Bh   
VK_F13 . . . . . . . . . . . . .	Number	 0000007Ch   
VK_F14 . . . . . . . . . . . . .	Number	 0000007Dh   
VK_F15 . . . . . . . . . . . . .	Number	 0000007Eh   
VK_F16 . . . . . . . . . . . . .	Number	 0000007Fh   
VK_F17 . . . . . . . . . . . . .	Number	 00000080h   
VK_F18 . . . . . . . . . . . . .	Number	 00000081h   
VK_F19 . . . . . . . . . . . . .	Number	 00000082h   
VK_F1  . . . . . . . . . . . . .	Number	 00000070h   
VK_F20 . . . . . . . . . . . . .	Number	 00000083h   
VK_F21 . . . . . . . . . . . . .	Number	 00000084h   
VK_F22 . . . . . . . . . . . . .	Number	 00000085h   
VK_F23 . . . . . . . . . . . . .	Number	 00000086h   
VK_F24 . . . . . . . . . . . . .	Number	 00000087h   
VK_F2  . . . . . . . . . . . . .	Number	 00000071h   
VK_F3  . . . . . . . . . . . . .	Number	 00000072h   
VK_F4  . . . . . . . . . . . . .	Number	 00000073h   
VK_F5  . . . . . . . . . . . . .	Number	 00000074h   
VK_F6  . . . . . . . . . . . . .	Number	 00000075h   
VK_F7  . . . . . . . . . . . . .	Number	 00000076h   
VK_F8  . . . . . . . . . . . . .	Number	 00000077h   
VK_F9  . . . . . . . . . . . . .	Number	 00000078h   
VK_HELP  . . . . . . . . . . . .	Number	 0000002Fh   
VK_HOME  . . . . . . . . . . . .	Number	 00000024h   
VK_INSERT  . . . . . . . . . . .	Number	 0000002Dh   
VK_LBUTTON . . . . . . . . . . .	Number	 00000001h   
VK_LCONTROL  . . . . . . . . . .	Number	 000000A2h   
VK_LEFT  . . . . . . . . . . . .	Number	 00000025h   
VK_LMENU . . . . . . . . . . . .	Number	 000000A4h   
VK_LSHIFT  . . . . . . . . . . .	Number	 000000A0h   
VK_MENU  . . . . . . . . . . . .	Number	 00000012h   
VK_MULTIPLY  . . . . . . . . . .	Number	 0000006Ah   
VK_NEXT  . . . . . . . . . . . .	Number	 00000022h   
VK_NUMLOCK . . . . . . . . . . .	Number	 00000090h   
VK_NUMPAD0 . . . . . . . . . . .	Number	 00000060h   
VK_NUMPAD1 . . . . . . . . . . .	Number	 00000061h   
VK_NUMPAD2 . . . . . . . . . . .	Number	 00000062h   
VK_NUMPAD3 . . . . . . . . . . .	Number	 00000063h   
VK_NUMPAD4 . . . . . . . . . . .	Number	 00000064h   
VK_NUMPAD5 . . . . . . . . . . .	Number	 00000065h   
VK_NUMPAD6 . . . . . . . . . . .	Number	 00000066h   
VK_NUMPAD7 . . . . . . . . . . .	Number	 00000067h   
VK_NUMPAD8 . . . . . . . . . . .	Number	 00000068h   
VK_NUMPAD9 . . . . . . . . . . .	Number	 00000069h   
VK_PAUSE . . . . . . . . . . . .	Number	 00000013h   
VK_PRINT . . . . . . . . . . . .	Number	 0000002Ah   
VK_PRIOR . . . . . . . . . . . .	Number	 00000021h   
VK_RBUTTON . . . . . . . . . . .	Number	 00000002h   
VK_RCONTROL  . . . . . . . . . .	Number	 000000A3h   
VK_RETURN  . . . . . . . . . . .	Number	 0000000Dh   
VK_RIGHT . . . . . . . . . . . .	Number	 00000027h   
VK_RMENU . . . . . . . . . . . .	Number	 000000A5h   
VK_RSHIFT  . . . . . . . . . . .	Number	 000000A1h   
VK_SCROLL  . . . . . . . . . . .	Number	 00000091h   
VK_SEPARATER . . . . . . . . . .	Number	 0000006Ch   
VK_SHIFT . . . . . . . . . . . .	Number	 00000010h   
VK_SNAPSHOT  . . . . . . . . . .	Number	 0000002Ch   
VK_SPACE . . . . . . . . . . . .	Number	 00000020h   
VK_SUBTRACT  . . . . . . . . . .	Number	 0000006Dh   
VK_TAB . . . . . . . . . . . . .	Number	 00000009h   
VK_UP  . . . . . . . . . . . . .	Number	 00000026h   
WINDOW_BUFFER_SIZE_EVENT . . . .	Number	 00000004h   
WriteConsoleOutputCharacter  . .	Text   	 WriteConsoleOutputCharacterA
WriteConsole . . . . . . . . . .	Text   	 WriteConsoleA
billMsg  . . . . . . . . . . . .	Byte	 00002972 _DATA	
bill . . . . . . . . . . . . . .	DWord	 00000070 _DATA	
black  . . . . . . . . . . . . .	Number	 00000000h   
blue . . . . . . . . . . . . . .	Number	 00000001h   
bool . . . . . . . . . . . . . .	DWord	 00000074 _DATA	
brown  . . . . . . . . . . . . .	Number	 00000006h   
buff . . . . . . . . . . . . . .	Byte	 00002AE9 _DATA	
bytWrite . . . . . . . . . . . .	DWord	 00000088 _DATA	
byteRead . . . . . . . . . . . .	DWord	 00000078 _DATA	
cMenu  . . . . . . . . . . . . .	Byte	 00002054 _DATA	
cPrice . . . . . . . . . . . . .	DWord	 00000020 _DATA	
caption  . . . . . . . . . . . .	Byte	 00002940 _DATA	
chinese  . . . . . . . . . . . .	Byte	 000022D2 _DATA	
choice . . . . . . . . . . . . .	Byte	 000014C3 _DATA	
confirm  . . . . . . . . . . . .	Byte	 000028C8 _DATA	
continueOrder  . . . . . . . . .	Byte	 00002A77 _DATA	
convertedTobyte  . . . . . . . .	Byte	 00002AD6 _DATA	
cyan . . . . . . . . . . . . . .	Number	 00000003h   
dePrice  . . . . . . . . . . . .	DWord	 00000040 _DATA	
dealAdded  . . . . . . . . . . .	Byte	 00002A3A _DATA	
dealCancel . . . . . . . . . . .	Byte	 00002AA5 _DATA	
dealItem . . . . . . . . . . . .	Byte	 0000291C _DATA	
dealRep  . . . . . . . . . . . .	DWord	 00000084 _DATA	
deals  . . . . . . . . . . . . .	Byte	 00001CDD _DATA	
dessert  . . . . . . . . . . . .	Byte	 0000250D _DATA	
digitCount . . . . . . . . . . .	DWord	 00002AE1 _DATA	
dishes . . . . . . . . . . . . .	Byte	 00002905 _DATA	
divideIt . . . . . . . . . . . .	DWord	 00002AD2 _DATA	
drPrice  . . . . . . . . . . . .	DWord	 00000050 _DATA	
drinks1_5  . . . . . . . . . . .	Byte	 00001FDD _DATA	
drinks . . . . . . . . . . . . .	Byte	 00002614 _DATA	
errMsg . . . . . . . . . . . . .	Byte	 00002948 _DATA	
exitMsg  . . . . . . . . . . . .	Byte	 000029D9 _DATA	
exit . . . . . . . . . . . . . .	Text   	 INVOKE ExitProcess,0
fHandle  . . . . . . . . . . . .	DWord	 0000007C _DATA	
fPrice . . . . . . . . . . . . .	DWord	 00000030 _DATA	
fastFood . . . . . . . . . . . .	Byte	 00002400 _DATA	
gray . . . . . . . . . . . . . .	Number	 00000008h   
green  . . . . . . . . . . . . .	Number	 00000002h   
id . . . . . . . . . . . . . . .	Byte	 0000147B _DATA	
lightBlue  . . . . . . . . . . .	Number	 00000009h   
lightCyan  . . . . . . . . . . .	Number	 0000000Bh   
lightGray  . . . . . . . . . . .	Number	 00000007h   
lightGreen . . . . . . . . . . .	Number	 0000000Ah   
lightMagenta . . . . . . . . . .	Number	 0000000Dh   
lightRed . . . . . . . . . . . .	Number	 0000000Ch   
magenta  . . . . . . . . . . . .	Number	 00000005h   
mockBill . . . . . . . . . . . .	DWord	 00000080 _DATA	
mockSaleBill . . . . . . . . . .	Byte	 00001434 _DATA	
nameSale . . . . . . . . . . . .	Byte	 00002AC7 _DATA	
newLine  . . . . . . . . . . . .	Byte	 00002AD0 _DATA	
newPass  . . . . . . . . . . . .	Byte	 0000280B _DATA	
oPrice . . . . . . . . . . . . .	DWord	 00000000 _DATA	
options  . . . . . . . . . . . .	Byte	 000015A7 _DATA	
oriental . . . . . . . . . . . .	Byte	 00002113 _DATA	
pMenu  . . . . . . . . . . . . .	Byte	 000016F5 _DATA	
passFileName . . . . . . . . . .	Byte	 000027C1 _DATA	
passFile . . . . . . . . . . . .	Byte	 0000008C _DATA	
passWord . . . . . . . . . . . .	Byte	 000027D8 _DATA	
paybill  . . . . . . . . . . . .	Byte	 000029BA _DATA	
reMsg  . . . . . . . . . . . . .	Byte	 000028E1 _DATA	
red  . . . . . . . . . . . . . .	Number	 00000004h   
regDrink . . . . . . . . . . . .	Byte	 00001F16 _DATA	
remainder  . . . . . . . . . . .	DWord	 00002AE5 _DATA	
saleFileName . . . . . . . . . .	Byte	 000027CE _DATA	
saleFile . . . . . . . . . . . .	Byte	 000000AC _DATA	
totalDis . . . . . . . . . . . .	Byte	 00002989 _DATA	
userPass . . . . . . . . . . . .	Byte	 0000009B _DATA	
welcome  . . . . . . . . . . . .	Byte	 00001435 _DATA	
white  . . . . . . . . . . . . .	Number	 0000000Fh   
wrongPas . . . . . . . . . . . .	Byte	 0000283A _DATA	
wsprintf . . . . . . . . . . . .	Text   	 wsprintfA
yellow . . . . . . . . . . . . .	Number	 0000000Eh   

	   0 Warnings
	   0 Errors
